;--------------------------------------------------------
; File Created by SDCC : free open source ISO C Compiler
; Version 4.5.0 #15242 (Linux)
;--------------------------------------------------------
	.module main
	
	.optsdcc -mz80 sdcccall(1)
;--------------------------------------------------------
; Public variables in this module
;--------------------------------------------------------
	.globl _main
	.globl _ZX0_decompress
	.globl _TTY_set_color
	.globl _TTY_cls
	.globl _screen5
	.globl _vdp_cmd_execute_HMMM
	.globl _vdp_cmd_execute_HMMC
	.globl _vdp_cmd_write
	.globl _vdp_set_image_table
	.globl _vdp_write_palette
	.globl _await_vsync
	.globl _counter
	.globl _p
	.globl _decompress
	.globl _map
	.globl _vram_pal_len
	.globl _vram_pal
	.globl _vram3_len
	.globl _vram3
	.globl _vram2_len
	.globl _vram2
	.globl _vram1_len
	.globl _vram1
	.globl _nave
;--------------------------------------------------------
; special function registers
;--------------------------------------------------------
_vdp_port0	=	0x0098
_vdp_port1	=	0x0099
_vdp_port2	=	0x009a
_vdp_port3	=	0x009b
_psg_port0	=	0x00a0
_psg_port1	=	0x00a1
_psg_port2	=	0x00a2
_primary_slot_select_port	=	0x00a8
;--------------------------------------------------------
; ram data
;--------------------------------------------------------
	.area _DATA
_DISKVE	=	0xf323
_BREAKV	=	0xf325
_RAMAD0	=	0xf341
_RAMAD1	=	0xf342
_RAMAD2	=	0xf343
_RAMAD3	=	0xf344
_MASTERS	=	0xf348
_RDPRIM	=	0xf380
_WRPRIM	=	0xf385
_CLPRIM	=	0xf38c
_USRTAB	=	0xf39a
_LINL40	=	0xf3ae
_LINL32	=	0xf3af
_LINLEN	=	0xf3b0
_CRTCNT	=	0xf3b1
_CLMLST	=	0xf3b2
_TXTNAM	=	0xf3b3
_TXTCOL	=	0xf3b5
_TXTCGP	=	0xf3b7
_TXTATR	=	0xf3b9
_TXTPAT	=	0xf3bb
_T32NAM	=	0xf3bd
_T32COL	=	0xf3bf
_T32CGP	=	0xf3c1
_T32ATR	=	0xf3c3
_T32PAT	=	0xf3c5
_GRPNAM	=	0xf3c7
_GRPCOL	=	0xf3c9
_GRPCGP	=	0xf3cb
_GRPATR	=	0xf3cd
_GRPPAT	=	0xf3cf
_MLTNAM	=	0xf3d1
_MLTCOL	=	0xf3d3
_MLTCGP	=	0xf3d5
_MLTATR	=	0xf3d7
_MLTPAT	=	0xf3d9
_CLIKSW	=	0xf3db
_CSRY	=	0xf3dc
_CSRX	=	0xf3dd
_CNSDFG	=	0xf3de
_RG0SAV	=	0xf3df
_RG1SAV	=	0xf3e0
_RG2SAV	=	0xf3e1
_RG3SAV	=	0xf3e2
_RG4SAV	=	0xf3e3
_RG5SAV	=	0xf3e4
_RG6SAV	=	0xf3e5
_RG7SAV	=	0xf3e6
_STATFL	=	0xf3e7
_TRGFLG	=	0xf3e8
_FORCLR	=	0xf3e9
_BAKCLR	=	0xf3ea
_BDRCLR	=	0xf3eb
_MAXUPD	=	0xf3ec
_MINUPD	=	0xf3ef
_ATRBYT	=	0xf3f2
_QUEUES	=	0xf3f3
_FRCNEW	=	0xf3f5
_SCNCNT	=	0xf3f6
_REPCNT	=	0xf3f7
_PUTPNT	=	0xf3f8
_GETPNT	=	0xf3fa
_FNKSTR	=	0xf87f
_NAMBAS	=	0xf922
_CGPBAS	=	0xf924
_PATBAS	=	0xf926
_ATRBAS	=	0xf928
_EXBRSA	=	0xfaf8
_HOKVLD	=	0xfb20
_DRVTBL	=	0xfb21
_HIMEM	=	0xfc4a
_JIFFY	=	0xfc9e
_EXPTBL	=	0xfcc1
_SLTTBL	=	0xfcc5
_SLTATR	=	0xfcc9
_SLTWRK	=	0xfd09
_H_KEYI	=	0xfd9a
_H_TIMI	=	0xfd9f
_FCALL	=	0xffca
_DISINT	=	0xffcf
_ENAINT	=	0xffd4
_RG8SAV	=	0xffe7
_RG9SAV	=	0xffe8
_RG10SA	=	0xffe9
_RG11SA	=	0xffea
_RG12SA	=	0xffeb
_RG13SA	=	0xffec
_RG14SA	=	0xffed
_RG15SA	=	0xffee
_RG16SA	=	0xffef
_RG17SA	=	0xfff0
_RG18SA	=	0xfff1
_RG19SA	=	0xfff2
_RG20SA	=	0xfff3
_RG21SA	=	0xfff4
_RG22SA	=	0xfff5
_RG23SA	=	0xfff6
_RG25SA	=	0xfffa
_RG26SA	=	0xfffb
_RG27SA	=	0xfffc
_decompress::
	.ds 5120
_p::
	.ds 2
_counter::
	.ds 2
;--------------------------------------------------------
; ram data
;--------------------------------------------------------
	.area _INITIALIZED
;--------------------------------------------------------
; absolute external ram data
;--------------------------------------------------------
	.area _DABS (ABS)
;--------------------------------------------------------
; global & static initialisations
;--------------------------------------------------------
	.area _HOME
	.area _GSINIT
	.area _GSFINAL
	.area _GSINIT
;--------------------------------------------------------
; Home
;--------------------------------------------------------
	.area _HOME
	.area _HOME
;--------------------------------------------------------
; code
;--------------------------------------------------------
	.area _APPLCODE
;src/main.c:140: void main(void) {
;	---------------------------------
; Function main
; ---------------------------------
_main::
	push	ix
	ld	ix,#0
	add	ix,sp
	push	af
;src/main.c:141: screen5();
	call	_screen5
;src/main.c:142: color(0, 0, 0);
	xor	a, a
	push	af
	inc	sp
	xor	a, a
	ld	l, a
	call	_TTY_set_color
;src/main.c:143: cls();
	call	_TTY_cls
;src/main.c:85: vdp_set_image_table(0x8000ULL*page);
	ld	de, #0x0000
	ld	h, d
	ld	l, e
	call	_vdp_set_image_table
;src/main.c:149: vdp_write_palette(vram_pal);
	ld	hl, #_vram_pal
	call	_vdp_write_palette
;src/main.c:151: ZX0_decompress (vram1, decompress);
	ld	de, #_decompress
	ld	hl, #_vram1
	call	_ZX0_decompress
;src/main.c:152: vdp_copy_HMMC(0, CHAR_OFFY,256,32, decompress,  5120);
;src/main.c:75: vdp_cmd_execute_HMMC(x, y, w, h, VDP_CMD_LRTB);
	xor	a, a
	push	af
	inc	sp
	ld	hl, #0x0020
	push	hl
	ld	hl, #0x0100
	push	hl
	ld	de, #0x0016
	ld	h, l
	call	_vdp_cmd_execute_HMMC
;src/main.c:76: p = data;
	ld	hl, #_decompress
	ld	(_p), hl
;src/main.c:77: counter = count;
	ld	hl, #0x1400
	ld	(_counter), hl
00113$:
;src/main.c:78: for (; counter--; ) {
	ld	bc, (_counter)
	ld	hl, (_counter)
	dec	hl
	ld	(_counter), hl
	ld	a, b
	or	a, c
	jr	Z, 00106$
;src/main.c:79: vdp_cmd_write(*p);
	ld	hl, (_p)
	ld	a, (hl)
	call	_vdp_cmd_write
;src/main.c:80: ++p;
	ld	hl, (_p)
	inc	hl
	ld	(_p), hl
	jr	00113$
;src/main.c:152: vdp_copy_HMMC(0, CHAR_OFFY,256,32, decompress,  5120);
00106$:
;src/main.c:153: ZX0_decompress (vram2, decompress);
	ld	de, #_decompress
	ld	hl, #_vram2
	call	_ZX0_decompress
;src/main.c:154: vdp_copy_HMMC(0, CHAR_OFFY+32,256,32, decompress,  5120);
;src/main.c:75: vdp_cmd_execute_HMMC(x, y, w, h, VDP_CMD_LRTB);
	xor	a, a
	push	af
	inc	sp
	ld	hl, #0x0020
	push	hl
	ld	hl, #0x0100
	push	hl
	ld	de, #0x0036
	ld	h, l
	call	_vdp_cmd_execute_HMMC
;src/main.c:76: p = data;
	ld	hl, #_decompress
	ld	(_p), hl
;src/main.c:77: counter = count;
	ld	hl, #0x1400
	ld	(_counter), hl
00116$:
;src/main.c:78: for (; counter--; ) {
	ld	bc, (_counter)
	ld	hl, (_counter)
	dec	hl
	ld	(_counter), hl
	ld	a, b
	or	a, c
	jr	Z, 00108$
;src/main.c:79: vdp_cmd_write(*p);
	ld	hl, (_p)
	ld	a, (hl)
	call	_vdp_cmd_write
;src/main.c:80: ++p;
	ld	hl, (_p)
	inc	hl
	ld	(_p), hl
	jr	00116$
;src/main.c:154: vdp_copy_HMMC(0, CHAR_OFFY+32,256,32, decompress,  5120);
00108$:
;src/main.c:155: ZX0_decompress (vram3, decompress);
	ld	de, #_decompress
	ld	hl, #_vram3
	call	_ZX0_decompress
;src/main.c:156: vdp_copy_HMMC(0, CHAR_OFFY+64,256,16, decompress,  2560);
;src/main.c:75: vdp_cmd_execute_HMMC(x, y, w, h, VDP_CMD_LRTB);
	xor	a, a
	push	af
	inc	sp
	ld	hl, #0x0010
	push	hl
	ld	hl, #0x0100
	push	hl
	ld	de, #0x0056
	ld	h, l
	call	_vdp_cmd_execute_HMMC
;src/main.c:76: p = data;
	ld	hl, #_decompress
	ld	(_p), hl
;src/main.c:77: counter = count;
	ld	hl, #0x0a00
	ld	(_counter), hl
00119$:
;src/main.c:78: for (; counter--; ) {
	ld	bc, (_counter)
	ld	hl, (_counter)
	dec	hl
	ld	(_counter), hl
	ld	a, b
	or	a, c
	jr	Z, 00110$
;src/main.c:79: vdp_cmd_write(*p);
	ld	hl, (_p)
	ld	a, (hl)
	call	_vdp_cmd_write
;src/main.c:80: ++p;
	ld	hl, (_p)
	inc	hl
	ld	(_p), hl
	jr	00119$
;src/main.c:156: vdp_copy_HMMC(0, CHAR_OFFY+64,256,16, decompress,  2560);
00110$:
;src/main.c:85: vdp_set_image_table(0x8000ULL*page);
	ld	de, #0x8000
	ld	hl, #0x0000
	call	_vdp_set_image_table
;src/main.c:160: for(uint8_t l = 0; l < 16; ++l)
	ld	-2 (ix), #0x00
00125$:
	ld	a, -2 (ix)
	sub	a, #0x10
	jr	NC, 00127$
;src/main.c:161: for(uint8_t c = 0; c < 16; ++c){
	ld	-1 (ix), #0x00
00122$:
	ld	a, -1 (ix)
	sub	a, #0x10
	jr	NC, 00126$
;src/main.c:163: vdp_cmd_execute_HMMM((map[l*16+c]%16)*16,(map[l*16+c]/16)*16+TILE_OFFY, 16, 16, c*16,l*16+256);
	ld	l, -2 (ix)
	ld	h, #0x00
	add	hl, hl
	add	hl, hl
	add	hl, hl
	add	hl, hl
	ld	c, l
	ld	b, #0x01
	ld	e, -1 (ix)
	ld	d, #0x00
	push	de
	pop	iy
	add	iy, iy
	add	iy, iy
	add	iy, iy
	add	iy, iy
	add	hl, de
	ld	de, #_map
	add	hl, de
	ld	l, (hl)
	ld	e, l
	ld	d, #0x00
	sra	d
	rr	e
	sra	d
	rr	e
	sra	d
	rr	e
	sra	d
	rr	e
	ex	de, hl
	add	hl, hl
	add	hl, hl
	add	hl, hl
	add	hl, hl
	ex	de, hl
	ld	a, e
	add	a, #0x26
	ld	e, a
	jr	NC, 00213$
	inc	d
00213$:
	ld	a, l
	and	a, #0x0f
	ld	h, #0x00
	ld	l, a
	add	hl, hl
	add	hl, hl
	add	hl, hl
	add	hl, hl
	push	bc
	push	iy
	ld	bc, #0x0010
	push	bc
	push	bc
	call	_vdp_cmd_execute_HMMM
;src/main.c:161: for(uint8_t c = 0; c < 16; ++c){
	inc	-1 (ix)
	jr	00122$
00126$:
;src/main.c:160: for(uint8_t l = 0; l < 16; ++l)
	inc	-2 (ix)
	jr	00125$
00127$:
;src/main.c:172: await_vsync();
	call	_await_vsync
;src/main.c:174: }
	jr	00127$
_CGTBL	=	0x0004
_INTERNATIONAL_ID_1	=	0x002b
_INTERNATIONAL_ID_2	=	0x002c
_MSX_SYSTEM_VERSION_CODE	=	0x002d
_RDSLT	=	0x000c
_WRSLT	=	0x0014
_CALSLT	=	0x001c
_ENASLT	=	0x0024
_CALLF	=	0x0030
_RSLREG	=	0x0138
_WSLREG	=	0x013b
_GTSTCK	=	0x00d5
_GTTRIG	=	0x00d8
_CHGCPU	=	0x0180
_GETCPU	=	0x0183
_CGPNT	=	0xf91f
_nave:
	.db #0x00	; 0
	.db #0x00	; 0
	.db #0x18	; 24
	.db #0x2c	; 44
	.db #0x37	; 55	'7'
	.db #0x1b	; 27
	.db #0x2d	; 45
	.db #0x3a	; 58
	.db #0x3a	; 58
	.db #0x2d	; 45
	.db #0x1b	; 27
	.db #0x37	; 55	'7'
	.db #0x2c	; 44
	.db #0x18	; 24
	.db #0x00	; 0
	.db #0x00	; 0
	.db #0x00	; 0
	.db #0x00	; 0
	.db #0x00	; 0
	.db #0x00	; 0
	.db #0x00	; 0
	.db #0xc0	; 192
	.db #0x30	; 48	'0'
	.db #0x1c	; 28
	.db #0x1c	; 28
	.db #0x30	; 48	'0'
	.db #0xc0	; 192
	.db #0x00	; 0
	.db #0x00	; 0
	.db #0x00	; 0
	.db #0x00	; 0
	.db #0x00	; 0
	.db #0x00	; 0
	.db #0x00	; 0
	.db #0x00	; 0
	.db #0x00	; 0
	.db #0x03	; 3
	.db #0x0f	; 15
	.db #0x38	; 56	'8'
	.db #0x26	; 38
	.db #0x3b	; 59
	.db #0x17	; 23
	.db #0x0e	; 14
	.db #0x05	; 5
	.db #0x03	; 3
	.db #0x01	; 1
	.db #0x00	; 0
	.db #0x00	; 0
	.db #0x00	; 0
	.db #0x00	; 0
	.db #0x18	; 24
	.db #0x7c	; 124
	.db #0x9c	; 156
	.db #0x08	; 8
	.db #0x88	; 136
	.db #0xd0	; 208
	.db #0x30	; 48	'0'
	.db #0xb0	; 176
	.db #0xa0	; 160
	.db #0x60	; 96
	.db #0x40	; 64
	.db #0xc0	; 192
	.db #0x00	; 0
	.db #0x00	; 0
	.db #0x00	; 0
	.db #0x00	; 0
	.db #0x01	; 1
	.db #0x01	; 1
	.db #0x03	; 3
	.db #0x02	; 2
	.db #0x04	; 4
	.db #0x04	; 4
	.db #0x0e	; 14
	.db #0x0d	; 13
	.db #0x1a	; 26
	.db #0x37	; 55	'7'
	.db #0x2d	; 45
	.db #0x1b	; 27
	.db #0x00	; 0
	.db #0x00	; 0
	.db #0x00	; 0
	.db #0x00	; 0
	.db #0x80	; 128
	.db #0x80	; 128
	.db #0xc0	; 192
	.db #0x40	; 64
	.db #0x20	; 32
	.db #0x20	; 32
	.db #0x70	; 112	'p'
	.db #0xb0	; 176
	.db #0x58	; 88	'X'
	.db #0xec	; 236
	.db #0xb4	; 180
	.db #0xd8	; 216
	.db #0x00	; 0
	.db #0x00	; 0
	.db #0x00	; 0
	.db #0x00	; 0
	.db #0x18	; 24
	.db #0x3e	; 62
	.db #0x39	; 57	'9'
	.db #0x10	; 16
	.db #0x11	; 17
	.db #0x0b	; 11
	.db #0x0c	; 12
	.db #0x0d	; 13
	.db #0x05	; 5
	.db #0x06	; 6
	.db #0x02	; 2
	.db #0x03	; 3
	.db #0x00	; 0
	.db #0x00	; 0
	.db #0x00	; 0
	.db #0x00	; 0
	.db #0x00	; 0
	.db #0x00	; 0
	.db #0xc0	; 192
	.db #0xf0	; 240
	.db #0x1c	; 28
	.db #0x64	; 100	'd'
	.db #0xdc	; 220
	.db #0xe8	; 232
	.db #0x70	; 112	'p'
	.db #0xa0	; 160
	.db #0xc0	; 192
	.db #0x80	; 128
	.db #0x00	; 0
	.db #0x00	; 0
	.db #0x00	; 0
	.db #0x00	; 0
	.db #0x00	; 0
	.db #0x00	; 0
	.db #0x00	; 0
	.db #0x03	; 3
	.db #0x0c	; 12
	.db #0x38	; 56	'8'
	.db #0x38	; 56	'8'
	.db #0x0c	; 12
	.db #0x03	; 3
	.db #0x00	; 0
	.db #0x00	; 0
	.db #0x00	; 0
	.db #0x00	; 0
	.db #0x00	; 0
	.db #0x00	; 0
	.db #0x00	; 0
	.db #0x18	; 24
	.db #0x34	; 52	'4'
	.db #0xec	; 236
	.db #0xd8	; 216
	.db #0xb4	; 180
	.db #0x5c	; 92
	.db #0x5c	; 92
	.db #0xb4	; 180
	.db #0xd8	; 216
	.db #0xec	; 236
	.db #0x34	; 52	'4'
	.db #0x18	; 24
	.db #0x00	; 0
	.db #0x00	; 0
	.db #0x00	; 0
	.db #0x00	; 0
	.db #0x03	; 3
	.db #0x02	; 2
	.db #0x06	; 6
	.db #0x05	; 5
	.db #0x0d	; 13
	.db #0x0c	; 12
	.db #0x0b	; 11
	.db #0x11	; 17
	.db #0x10	; 16
	.db #0x39	; 57	'9'
	.db #0x3e	; 62
	.db #0x18	; 24
	.db #0x00	; 0
	.db #0x00	; 0
	.db #0x00	; 0
	.db #0x00	; 0
	.db #0x80	; 128
	.db #0xc0	; 192
	.db #0xa0	; 160
	.db #0x70	; 112	'p'
	.db #0xe8	; 232
	.db #0xdc	; 220
	.db #0x64	; 100	'd'
	.db #0x1c	; 28
	.db #0xf0	; 240
	.db #0xc0	; 192
	.db #0x00	; 0
	.db #0x00	; 0
	.db #0x00	; 0
	.db #0x00	; 0
	.db #0x00	; 0
	.db #0x00	; 0
	.db #0x1b	; 27
	.db #0x2d	; 45
	.db #0x37	; 55	'7'
	.db #0x1a	; 26
	.db #0x0d	; 13
	.db #0x0e	; 14
	.db #0x04	; 4
	.db #0x04	; 4
	.db #0x02	; 2
	.db #0x03	; 3
	.db #0x01	; 1
	.db #0x01	; 1
	.db #0x00	; 0
	.db #0x00	; 0
	.db #0x00	; 0
	.db #0x00	; 0
	.db #0xd8	; 216
	.db #0xb4	; 180
	.db #0xec	; 236
	.db #0x58	; 88	'X'
	.db #0xb0	; 176
	.db #0x70	; 112	'p'
	.db #0x20	; 32
	.db #0x20	; 32
	.db #0x40	; 64
	.db #0xc0	; 192
	.db #0x80	; 128
	.db #0x80	; 128
	.db #0x00	; 0
	.db #0x00	; 0
	.db #0x00	; 0
	.db #0x00	; 0
	.db #0x01	; 1
	.db #0x03	; 3
	.db #0x05	; 5
	.db #0x0e	; 14
	.db #0x17	; 23
	.db #0x3b	; 59
	.db #0x26	; 38
	.db #0x38	; 56	'8'
	.db #0x0f	; 15
	.db #0x03	; 3
	.db #0x00	; 0
	.db #0x00	; 0
	.db #0x00	; 0
	.db #0x00	; 0
	.db #0x00	; 0
	.db #0x00	; 0
	.db #0xc0	; 192
	.db #0x40	; 64
	.db #0x60	; 96
	.db #0xa0	; 160
	.db #0xb0	; 176
	.db #0x30	; 48	'0'
	.db #0xd0	; 208
	.db #0x88	; 136
	.db #0x08	; 8
	.db #0x9c	; 156
	.db #0x7c	; 124
	.db #0x18	; 24
	.db #0x00	; 0
	.db #0x00	; 0
	.db #0x00	; 0
	.db #0x00	; 0
	.db #0x00	; 0
	.db #0x00	; 0
	.db #0x00	; 0
	.db #0x0c	; 12
	.db #0x07	; 7
	.db #0x0f	; 15
	.db #0x0f	; 15
	.db #0x07	; 7
	.db #0x0c	; 12
	.db #0x00	; 0
	.db #0x00	; 0
	.db #0x00	; 0
	.db #0x00	; 0
	.db #0x00	; 0
	.db #0x00	; 0
	.db #0x00	; 0
	.db #0x00	; 0
	.db #0x00	; 0
	.db #0x00	; 0
	.db #0x00	; 0
	.db #0xf0	; 240
	.db #0xf8	; 248
	.db #0xf8	; 248
	.db #0xf0	; 240
	.db #0x00	; 0
	.db #0x00	; 0
	.db #0x00	; 0
	.db #0x00	; 0
	.db #0x00	; 0
	.db #0x00	; 0
	.db #0x00	; 0
	.db #0x00	; 0
	.db #0x00	; 0
	.db #0x00	; 0
	.db #0x00	; 0
	.db #0x00	; 0
	.db #0x01	; 1
	.db #0x0b	; 11
	.db #0x17	; 23
	.db #0x03	; 3
	.db #0x05	; 5
	.db #0x00	; 0
	.db #0x01	; 1
	.db #0x00	; 0
	.db #0x00	; 0
	.db #0x00	; 0
	.db #0x00	; 0
	.db #0x00	; 0
	.db #0x00	; 0
	.db #0x00	; 0
	.db #0x60	; 96
	.db #0xf0	; 240
	.db #0xf0	; 240
	.db #0xe0	; 224
	.db #0xc0	; 192
	.db #0x80	; 128
	.db #0x00	; 0
	.db #0x80	; 128
	.db #0x00	; 0
	.db #0x00	; 0
	.db #0x00	; 0
	.db #0x00	; 0
	.db #0x00	; 0
	.db #0x00	; 0
	.db #0x00	; 0
	.db #0x01	; 1
	.db #0x03	; 3
	.db #0x03	; 3
	.db #0x03	; 3
	.db #0x03	; 3
	.db #0x03	; 3
	.db #0x03	; 3
	.db #0x07	; 7
	.db #0x05	; 5
	.db #0x00	; 0
	.db #0x00	; 0
	.db #0x00	; 0
	.db #0x00	; 0
	.db #0x00	; 0
	.db #0x00	; 0
	.db #0x00	; 0
	.db #0x80	; 128
	.db #0xc0	; 192
	.db #0xc0	; 192
	.db #0xc0	; 192
	.db #0xc0	; 192
	.db #0xc0	; 192
	.db #0xc0	; 192
	.db #0xe0	; 224
	.db #0xa0	; 160
	.db #0x00	; 0
	.db #0x00	; 0
	.db #0x00	; 0
	.db #0x00	; 0
	.db #0x00	; 0
	.db #0x00	; 0
	.db #0x00	; 0
	.db #0x00	; 0
	.db #0x06	; 6
	.db #0x0f	; 15
	.db #0x0f	; 15
	.db #0x07	; 7
	.db #0x03	; 3
	.db #0x01	; 1
	.db #0x00	; 0
	.db #0x01	; 1
	.db #0x00	; 0
	.db #0x00	; 0
	.db #0x00	; 0
	.db #0x00	; 0
	.db #0x00	; 0
	.db #0x00	; 0
	.db #0x00	; 0
	.db #0x00	; 0
	.db #0x00	; 0
	.db #0x00	; 0
	.db #0x80	; 128
	.db #0xd0	; 208
	.db #0xe8	; 232
	.db #0xc0	; 192
	.db #0xa0	; 160
	.db #0x00	; 0
	.db #0x80	; 128
	.db #0x00	; 0
	.db #0x00	; 0
	.db #0x00	; 0
	.db #0x00	; 0
	.db #0x00	; 0
	.db #0x00	; 0
	.db #0x00	; 0
	.db #0x00	; 0
	.db #0x00	; 0
	.db #0x0f	; 15
	.db #0x1f	; 31
	.db #0x1f	; 31
	.db #0x0f	; 15
	.db #0x00	; 0
	.db #0x00	; 0
	.db #0x00	; 0
	.db #0x00	; 0
	.db #0x00	; 0
	.db #0x00	; 0
	.db #0x00	; 0
	.db #0x00	; 0
	.db #0x00	; 0
	.db #0x00	; 0
	.db #0x00	; 0
	.db #0x30	; 48	'0'
	.db #0xe0	; 224
	.db #0xf0	; 240
	.db #0xf0	; 240
	.db #0xe0	; 224
	.db #0x30	; 48	'0'
	.db #0x00	; 0
	.db #0x00	; 0
	.db #0x00	; 0
	.db #0x00	; 0
	.db #0x00	; 0
	.db #0x00	; 0
	.db #0x00	; 0
	.db #0x00	; 0
	.db #0x00	; 0
	.db #0x01	; 1
	.db #0x00	; 0
	.db #0x01	; 1
	.db #0x03	; 3
	.db #0x07	; 7
	.db #0x0f	; 15
	.db #0x0f	; 15
	.db #0x06	; 6
	.db #0x00	; 0
	.db #0x00	; 0
	.db #0x00	; 0
	.db #0x00	; 0
	.db #0x00	; 0
	.db #0x00	; 0
	.db #0x00	; 0
	.db #0x80	; 128
	.db #0x00	; 0
	.db #0xa0	; 160
	.db #0xc0	; 192
	.db #0xe8	; 232
	.db #0xd0	; 208
	.db #0x80	; 128
	.db #0x00	; 0
	.db #0x00	; 0
	.db #0x00	; 0
	.db #0x00	; 0
	.db #0x00	; 0
	.db #0x00	; 0
	.db #0x00	; 0
	.db #0x00	; 0
	.db #0x00	; 0
	.db #0x00	; 0
	.db #0x05	; 5
	.db #0x07	; 7
	.db #0x03	; 3
	.db #0x03	; 3
	.db #0x03	; 3
	.db #0x03	; 3
	.db #0x03	; 3
	.db #0x03	; 3
	.db #0x01	; 1
	.db #0x00	; 0
	.db #0x00	; 0
	.db #0x00	; 0
	.db #0x00	; 0
	.db #0x00	; 0
	.db #0x00	; 0
	.db #0x00	; 0
	.db #0xa0	; 160
	.db #0xe0	; 224
	.db #0xc0	; 192
	.db #0xc0	; 192
	.db #0xc0	; 192
	.db #0xc0	; 192
	.db #0xc0	; 192
	.db #0xc0	; 192
	.db #0x80	; 128
	.db #0x00	; 0
	.db #0x00	; 0
	.db #0x00	; 0
	.db #0x00	; 0
	.db #0x00	; 0
	.db #0x00	; 0
	.db #0x01	; 1
	.db #0x00	; 0
	.db #0x05	; 5
	.db #0x03	; 3
	.db #0x17	; 23
	.db #0x0b	; 11
	.db #0x01	; 1
	.db #0x00	; 0
	.db #0x00	; 0
	.db #0x00	; 0
	.db #0x00	; 0
	.db #0x00	; 0
	.db #0x00	; 0
	.db #0x00	; 0
	.db #0x00	; 0
	.db #0x00	; 0
	.db #0x00	; 0
	.db #0x80	; 128
	.db #0x00	; 0
	.db #0x80	; 128
	.db #0xc0	; 192
	.db #0xe0	; 224
	.db #0xf0	; 240
	.db #0xf0	; 240
	.db #0x60	; 96
	.db #0x00	; 0
	.db #0x00	; 0
	.db #0x00	; 0
	.db #0x00	; 0
	.db #0x00	; 0
	.db #0x00	; 0
	.db #0x00	; 0
	.db #0x00	; 0
	.db #0x00	; 0
	.db #0x03	; 3
	.db #0x07	; 7
	.db #0x07	; 7
	.db #0x07	; 7
	.db #0x03	; 3
	.db #0x00	; 0
	.db #0x00	; 0
	.db #0x00	; 0
	.db #0x00	; 0
	.db #0x00	; 0
	.db #0x00	; 0
	.db #0x00	; 0
	.db #0x00	; 0
	.db #0x00	; 0
	.db #0x00	; 0
	.db #0x00	; 0
	.db #0x80	; 128
	.db #0xc0	; 192
	.db #0xc0	; 192
	.db #0xc0	; 192
	.db #0x80	; 128
	.db #0x00	; 0
	.db #0x00	; 0
	.db #0x00	; 0
	.db #0x00	; 0
	.db #0x00	; 0
	.db #0x00	; 0
	.db #0x00	; 0
	.db #0x00	; 0
	.db #0x00	; 0
	.db #0x07	; 7
	.db #0x0f	; 15
	.db #0x1f	; 31
	.db #0x1f	; 31
	.db #0x1f	; 31
	.db #0x1f	; 31
	.db #0x1f	; 31
	.db #0x0f	; 15
	.db #0x07	; 7
	.db #0x00	; 0
	.db #0x00	; 0
	.db #0x00	; 0
	.db #0x00	; 0
	.db #0x00	; 0
	.db #0x00	; 0
	.db #0x00	; 0
	.db #0xc0	; 192
	.db #0xe0	; 224
	.db #0xf0	; 240
	.db #0xf0	; 240
	.db #0xf0	; 240
	.db #0xf0	; 240
	.db #0xf0	; 240
	.db #0xe0	; 224
	.db #0xc0	; 192
	.db #0x00	; 0
	.db #0x00	; 0
	.db #0x00	; 0
	.db #0x00	; 0
	.db #0x07	; 7
	.db #0x1f	; 31
	.db #0x3f	; 63
	.db #0x7f	; 127
	.db #0x7f	; 127
	.db #0xff	; 255
	.db #0xff	; 255
	.db #0xff	; 255
	.db #0xff	; 255
	.db #0xff	; 255
	.db #0x7f	; 127
	.db #0x7f	; 127
	.db #0x3f	; 63
	.db #0x1f	; 31
	.db #0x07	; 7
	.db #0x00	; 0
	.db #0xc0	; 192
	.db #0xf0	; 240
	.db #0xf8	; 248
	.db #0xfc	; 252
	.db #0xfc	; 252
	.db #0xfe	; 254
	.db #0xfe	; 254
	.db #0xfe	; 254
	.db #0xfe	; 254
	.db #0xfe	; 254
	.db #0xfc	; 252
	.db #0xfc	; 252
	.db #0xf8	; 248
	.db #0xf0	; 240
	.db #0xc0	; 192
	.db #0x00	; 0
	.db #0x07	; 7
	.db #0x1f	; 31
	.db #0x3f	; 63
	.db #0x7f	; 127
	.db #0x7f	; 127
	.db #0xff	; 255
	.db #0xff	; 255
	.db #0xff	; 255
	.db #0xff	; 255
	.db #0xff	; 255
	.db #0x7f	; 127
	.db #0x7f	; 127
	.db #0x3f	; 63
	.db #0x1f	; 31
	.db #0x07	; 7
	.db #0x00	; 0
	.db #0xc0	; 192
	.db #0xf0	; 240
	.db #0xf8	; 248
	.db #0xfc	; 252
	.db #0xfc	; 252
	.db #0xfe	; 254
	.db #0xfe	; 254
	.db #0xfe	; 254
	.db #0xfe	; 254
	.db #0x8e	; 142
	.db #0x8c	; 140
	.db #0x8c	; 140
	.db #0xf8	; 248
	.db #0xf0	; 240
	.db #0xc0	; 192
	.db #0x00	; 0
	.db #0x07	; 7
	.db #0x1f	; 31
	.db #0x3f	; 63
	.db #0x7f	; 127
	.db #0x7f	; 127
	.db #0xff	; 255
	.db #0xff	; 255
	.db #0xfe	; 254
	.db #0xfc	; 252
	.db #0xfc	; 252
	.db #0x7c	; 124
	.db #0x7e	; 126
	.db #0x3f	; 63
	.db #0x1f	; 31
	.db #0x07	; 7
	.db #0x00	; 0
	.db #0xc0	; 192
	.db #0xf0	; 240
	.db #0xf8	; 248
	.db #0xfc	; 252
	.db #0xfc	; 252
	.db #0xfe	; 254
	.db #0x1e	; 30
	.db #0x0e	; 14
	.db #0x06	; 6
	.db #0x06	; 6
	.db #0x04	; 4
	.db #0x0c	; 12
	.db #0x18	; 24
	.db #0xf0	; 240
	.db #0xc0	; 192
	.db #0x00	; 0
	.db #0x07	; 7
	.db #0x1f	; 31
	.db #0x3f	; 63
	.db #0x7c	; 124
	.db #0x78	; 120	'x'
	.db #0xf0	; 240
	.db #0xe0	; 224
	.db #0xe0	; 224
	.db #0xe0	; 224
	.db #0xe0	; 224
	.db #0x60	; 96
	.db #0x70	; 112	'p'
	.db #0x38	; 56	'8'
	.db #0x1c	; 28
	.db #0x07	; 7
	.db #0x00	; 0
	.db #0xc0	; 192
	.db #0xf0	; 240
	.db #0xf8	; 248
	.db #0x1c	; 28
	.db #0x0c	; 12
	.db #0x06	; 6
	.db #0x02	; 2
	.db #0x02	; 2
	.db #0x02	; 2
	.db #0x02	; 2
	.db #0x00	; 0
	.db #0x00	; 0
	.db #0x00	; 0
	.db #0x00	; 0
	.db #0xc0	; 192
	.db #0x00	; 0
	.db #0x07	; 7
	.db #0x1f	; 31
	.db #0x3c	; 60
	.db #0x70	; 112	'p'
	.db #0x60	; 96
	.db #0xc0	; 192
	.db #0x80	; 128
	.db #0x80	; 128
	.db #0x80	; 128
	.db #0x80	; 128
	.db #0x40	; 64
	.db #0x40	; 64
	.db #0x20	; 32
	.db #0x10	; 16
	.db #0x00	; 0
	.db #0x00	; 0
	.db #0xc0	; 192
	.db #0xf0	; 240
	.db #0x18	; 24
	.db #0x04	; 4
	.db #0x00	; 0
	.db #0x00	; 0
	.db #0x00	; 0
	.db #0x00	; 0
	.db #0x00	; 0
	.db #0x00	; 0
	.db #0x00	; 0
	.db #0x00	; 0
	.db #0x00	; 0
	.db #0x00	; 0
	.db #0x00	; 0
	.db #0x00	; 0
	.db #0x07	; 7
	.db #0x1c	; 28
	.db #0x30	; 48	'0'
	.db #0x60	; 96
	.db #0x40	; 64
	.db #0xc0	; 192
	.db #0x80	; 128
	.db #0x80	; 128
	.db #0x00	; 0
	.db #0x00	; 0
	.db #0x00	; 0
	.db #0x00	; 0
	.db #0x00	; 0
	.db #0x00	; 0
	.db #0x00	; 0
	.db #0x00	; 0
	.db #0x00	; 0
	.db #0x00	; 0
	.db #0x00	; 0
	.db #0x00	; 0
	.db #0x00	; 0
	.db #0x00	; 0
	.db #0x00	; 0
	.db #0x00	; 0
	.db #0x00	; 0
	.db #0x00	; 0
	.db #0x00	; 0
	.db #0x00	; 0
	.db #0x00	; 0
	.db #0x00	; 0
	.db #0x00	; 0
	.db #0x00	; 0
_vram1:
	.db #0x82	; 130
	.db #0x00	; 0
	.db #0xe8	; 232
	.db #0x0e	; 14
	.db #0xf8	; 248
	.db #0x93	; 147
	.db #0xe0	; 224
	.db #0xe0	; 224
	.db #0xe5	; 229
	.db #0xe9	; 233
	.db #0xfe	; 254
	.db #0x08	; 8
	.db #0xba	; 186
	.db #0x0e	; 14
	.db #0xee	; 238
	.db #0x91	; 145
	.db #0xee	; 238
	.db #0xfe	; 254
	.db #0xf0	; 240
	.db #0xf8	; 248
	.db #0x3a	; 58
	.db #0xf4	; 244
	.db #0xff	; 255
	.db #0xe0	; 224
	.db #0xf3	; 243
	.db #0xdf	; 223
	.db #0xe0	; 224
	.db #0x3d	; 61
	.db #0xf0	; 240
	.db #0xf0	; 240
	.db #0x88	; 136
	.db #0x7f	; 127
	.db #0xfe	; 254
	.db #0xf7	; 247
	.db #0xb3	; 179
	.db #0x00	; 0
	.db #0x9f	; 159
	.db #0x98	; 152
	.db #0xf3	; 243
	.db #0xfa	; 250
	.db #0xfd	; 253
	.db #0xa8	; 168
	.db #0x0e	; 14
	.db #0x17	; 23
	.db #0xd8	; 216
	.db #0xfd	; 253
	.db #0xc8	; 200
	.db #0x5d	; 93
	.db #0xf8	; 248
	.db #0x9e	; 158
	.db #0xa8	; 168
	.db #0xef	; 239
	.db #0x8c	; 140
	.db #0x84	; 132
	.db #0xe0	; 224
	.db #0xe0	; 224
	.db #0xf0	; 240
	.db #0xf0	; 240
	.db #0xfd	; 253
	.db #0xf8	; 248
	.db #0x84	; 132
	.db #0xfa	; 250
	.db #0xdf	; 223
	.db #0xa8	; 168
	.db #0x97	; 151
	.db #0x00	; 0
	.db #0x7f	; 127
	.db #0x90	; 144
	.db #0x07	; 7
	.db #0xff	; 255
	.db #0xa4	; 164
	.db #0xf7	; 247
	.db #0x00	; 0
	.db #0x4c	; 76	'L'
	.db #0x94	; 148
	.db #0xc8	; 200
	.db #0xf6	; 246
	.db #0xdf	; 223
	.db #0x1c	; 28
	.db #0xfe	; 254
	.db #0x12	; 18
	.db #0x30	; 48	'0'
	.db #0x0f	; 15
	.db #0x58	; 88	'X'
	.db #0xff	; 255
	.db #0x2a	; 42
	.db #0xf8	; 248
	.db #0xe0	; 224
	.db #0xe0	; 224
	.db #0xf5	; 245
	.db #0x00	; 0
	.db #0xdd	; 221
	.db #0x10	; 16
	.db #0xf6	; 246
	.db #0x00	; 0
	.db #0x39	; 57	'9'
	.db #0x99	; 153
	.db #0x90	; 144
	.db #0xd0	; 208
	.db #0x8a	; 138
	.db #0x90	; 144
	.db #0x90	; 144
	.db #0x67	; 103	'g'
	.db #0x09	; 9
	.db #0x99	; 153
	.db #0x99	; 153
	.db #0xde	; 222
	.db #0xe0	; 224
	.db #0x2a	; 42
	.db #0x4a	; 74	'J'
	.db #0x09	; 9
	.db #0xfc	; 252
	.db #0xc8	; 200
	.db #0xc3	; 195
	.db #0x90	; 144
	.db #0xe7	; 231
	.db #0xbe	; 190
	.db #0x99	; 153
	.db #0x09	; 9
	.db #0x09	; 9
	.db #0xbc	; 188
	.db #0x96	; 150
	.db #0x90	; 144
	.db #0xfe	; 254
	.db #0xf9	; 249
	.db #0xf0	; 240
	.db #0x27	; 39
	.db #0x90	; 144
	.db #0x99	; 153
	.db #0xfe	; 254
	.db #0xf8	; 248
	.db #0xff	; 255
	.db #0xcf	; 207
	.db #0xf3	; 243
	.db #0x09	; 9
	.db #0xd8	; 216
	.db #0x59	; 89	'Y'
	.db #0xfe	; 254
	.db #0x0f	; 15
	.db #0x60	; 96
	.db #0x3f	; 63
	.db #0xbf	; 191
	.db #0xe2	; 226
	.db #0x7e	; 126
	.db #0xb1	; 177
	.db #0xe8	; 232
	.db #0xff	; 255
	.db #0xf8	; 248
	.db #0xfe	; 254
	.db #0x0d	; 13
	.db #0xdf	; 223
	.db #0xc8	; 200
	.db #0xd0	; 208
	.db #0x5f	; 95
	.db #0xe0	; 224
	.db #0xf9	; 249
	.db #0x9d	; 157
	.db #0x00	; 0
	.db #0xe7	; 231
	.db #0x6c	; 108	'l'
	.db #0xf6	; 246
	.db #0xef	; 239
	.db #0xf8	; 248
	.db #0xf4	; 244
	.db #0x99	; 153
	.db #0xf0	; 240
	.db #0xe4	; 228
	.db #0x10	; 16
	.db #0x3f	; 63
	.db #0xf3	; 243
	.db #0x38	; 56	'8'
	.db #0x5d	; 93
	.db #0x9f	; 159
	.db #0x90	; 144
	.db #0x58	; 88	'X'
	.db #0xf5	; 245
	.db #0x2a	; 42
	.db #0xc8	; 200
	.db #0xfe	; 254
	.db #0xe7	; 231
	.db #0x18	; 24
	.db #0xdf	; 223
	.db #0x88	; 136
	.db #0xb1	; 177
	.db #0xf8	; 248
	.db #0xf2	; 242
	.db #0x00	; 0
	.db #0x69	; 105	'i'
	.db #0x90	; 144
	.db #0x69	; 105	'i'
	.db #0x90	; 144
	.db #0x5f	; 95
	.db #0xf8	; 248
	.db #0xf1	; 241
	.db #0x28	; 40
	.db #0xf5	; 245
	.db #0x46	; 70	'F'
	.db #0xdc	; 220
	.db #0x38	; 56	'8'
	.db #0x7f	; 127
	.db #0xfb	; 251
	.db #0xa1	; 161
	.db #0xd5	; 213
	.db #0xa8	; 168
	.db #0xf9	; 249
	.db #0x61	; 97	'a'
	.db #0xea	; 234
	.db #0xcd	; 205
	.db #0x10	; 16
	.db #0xca	; 202
	.db #0x18	; 24
	.db #0x21	; 33
	.db #0x90	; 144
	.db #0x09	; 9
	.db #0x7d	; 125
	.db #0xe8	; 232
	.db #0x79	; 121	'y'
	.db #0x00	; 0
	.db #0x0f	; 15
	.db #0xd9	; 217
	.db #0x80	; 128
	.db #0xfe	; 254
	.db #0x17	; 23
	.db #0x56	; 86	'V'
	.db #0x90	; 144
	.db #0x7e	; 126
	.db #0xff	; 255
	.db #0xf0	; 240
	.db #0x5b	; 91
	.db #0xe0	; 224
	.db #0xcc	; 204
	.db #0xf8	; 248
	.db #0x27	; 39
	.db #0xb8	; 184
	.db #0xb1	; 177
	.db #0xf0	; 240
	.db #0xc3	; 195
	.db #0x48	; 72	'H'
	.db #0xde	; 222
	.db #0xb0	; 176
	.db #0xf0	; 240
	.db #0x13	; 19
	.db #0xfb	; 251
	.db #0x90	; 144
	.db #0xf4	; 244
	.db #0xc3	; 195
	.db #0xf8	; 248
	.db #0xf0	; 240
	.db #0xfc	; 252
	.db #0xf5	; 245
	.db #0x48	; 72	'H'
	.db #0x70	; 112	'p'
	.db #0x00	; 0
	.db #0x3b	; 59
	.db #0xb8	; 184
	.db #0xc3	; 195
	.db #0xf8	; 248
	.db #0xce	; 206
	.db #0xfe	; 254
	.db #0xe0	; 224
	.db #0x17	; 23
	.db #0xd3	; 211
	.db #0xa0	; 160
	.db #0xd7	; 215
	.db #0x90	; 144
	.db #0xc4	; 196
	.db #0xc0	; 192
	.db #0xd5	; 213
	.db #0x84	; 132
	.db #0x5a	; 90	'Z'
	.db #0xf3	; 243
	.db #0xa0	; 160
	.db #0x60	; 96
	.db #0xa8	; 168
	.db #0xf3	; 243
	.db #0xe8	; 232
	.db #0xdf	; 223
	.db #0x9c	; 156
	.db #0xe0	; 224
	.db #0x78	; 120	'x'
	.db #0xe6	; 230
	.db #0xe5	; 229
	.db #0xb8	; 184
	.db #0xbf	; 191
	.db #0x0e	; 14
	.db #0xf0	; 240
	.db #0x84	; 132
	.db #0xf8	; 248
	.db #0xf3	; 243
	.db #0x0a	; 10
	.db #0x61	; 97	'a'
	.db #0x00	; 0
	.db #0x76	; 118	'v'
	.db #0x26	; 38
	.db #0xf3	; 243
	.db #0x16	; 22
	.db #0x93	; 147
	.db #0x00	; 0
	.db #0x38	; 56	'8'
	.db #0xdb	; 219
	.db #0xe4	; 228
	.db #0xc6	; 198
	.db #0xb8	; 184
	.db #0x34	; 52	'4'
	.db #0xfc	; 252
	.db #0x78	; 120	'x'
	.db #0xe8	; 232
	.db #0xd2	; 210
	.db #0x99	; 153
	.db #0x9c	; 156
	.db #0x90	; 144
	.db #0x6f	; 111	'o'
	.db #0x9a	; 154
	.db #0xf7	; 247
	.db #0xf1	; 241
	.db #0xd0	; 208
	.db #0x9e	; 158
	.db #0x52	; 82	'R'
	.db #0xb8	; 184
	.db #0x5a	; 90	'Z'
	.db #0x09	; 9
	.db #0x3f	; 63
	.db #0xb0	; 176
	.db #0xdf	; 223
	.db #0x90	; 144
	.db #0xf0	; 240
	.db #0x74	; 116	't'
	.db #0xff	; 255
	.db #0x30	; 48	'0'
	.db #0xa8	; 168
	.db #0xdf	; 223
	.db #0xc8	; 200
	.db #0xb0	; 176
	.db #0xc7	; 199
	.db #0xc0	; 192
	.db #0x75	; 117	'u'
	.db #0x37	; 55	'7'
	.db #0x38	; 56	'8'
	.db #0xc3	; 195
	.db #0xd3	; 211
	.db #0x22	; 34
	.db #0x0e	; 14
	.db #0xd6	; 214
	.db #0x3f	; 63
	.db #0x38	; 56	'8'
	.db #0xfd	; 253
	.db #0xa0	; 160
	.db #0x00	; 0
	.db #0xd5	; 213
	.db #0xdf	; 223
	.db #0x9c	; 156
	.db #0x70	; 112	'p'
	.db #0x7c	; 124
	.db #0x58	; 88	'X'
	.db #0xf0	; 240
	.db #0xb8	; 184
	.db #0xf0	; 240
	.db #0xe0	; 224
	.db #0xbc	; 188
	.db #0x09	; 9
	.db #0xb0	; 176
	.db #0xe4	; 228
	.db #0xa8	; 168
	.db #0xfe	; 254
	.db #0xdc	; 220
	.db #0x54	; 84	'T'
	.db #0xf7	; 247
	.db #0x80	; 128
	.db #0x8d	; 141
	.db #0xc4	; 196
	.db #0x1d	; 29
	.db #0x56	; 86	'V'
	.db #0x7b	; 123
	.db #0xc2	; 194
	.db #0xf4	; 244
	.db #0xe7	; 231
	.db #0x60	; 96
	.db #0xf0	; 240
	.db #0x00	; 0
	.db #0x5f	; 95
	.db #0x2c	; 44
	.db #0xfa	; 250
	.db #0xa8	; 168
	.db #0x90	; 144
	.db #0x17	; 23
	.db #0xbd	; 189
	.db #0xda	; 218
	.db #0x80	; 128
	.db #0x3d	; 61
	.db #0x00	; 0
	.db #0xa1	; 161
	.db #0x09	; 9
	.db #0x36	; 54	'6'
	.db #0xe6	; 230
	.db #0x73	; 115	's'
	.db #0x80	; 128
	.db #0x0f	; 15
	.db #0xf0	; 240
	.db #0x36	; 54	'6'
	.db #0xf8	; 248
	.db #0x73	; 115	's'
	.db #0x48	; 72	'H'
	.db #0x29	; 41
	.db #0x00	; 0
	.db #0x3d	; 61
	.db #0xb0	; 176
	.db #0xe0	; 224
	.db #0x08	; 8
	.db #0xe7	; 231
	.db #0xd8	; 216
	.db #0x87	; 135
	.db #0xb0	; 176
	.db #0x37	; 55	'7'
	.db #0x00	; 0
	.db #0x9e	; 158
	.db #0xf0	; 240
	.db #0x40	; 64
	.db #0x7d	; 125
	.db #0x00	; 0
	.db #0xfc	; 252
	.db #0x90	; 144
	.db #0xd7	; 215
	.db #0xfe	; 254
	.db #0xfd	; 253
	.db #0xb0	; 176
	.db #0xfe	; 254
	.db #0x55	; 85	'U'
	.db #0x88	; 136
	.db #0x71	; 113	'q'
	.db #0x11	; 17
	.db #0x62	; 98	'b'
	.db #0x17	; 23
	.db #0x66	; 102	'f'
	.db #0x5b	; 91
	.db #0x86	; 134
	.db #0x9a	; 154
	.db #0xf2	; 242
	.db #0x68	; 104	'h'
	.db #0xf2	; 242
	.db #0xfe	; 254
	.db #0x97	; 151
	.db #0x11	; 17
	.db #0x91	; 145
	.db #0x00	; 0
	.db #0x5a	; 90	'Z'
	.db #0x18	; 24
	.db #0x4a	; 74	'J'
	.db #0x81	; 129
	.db #0x02	; 2
	.db #0x92	; 146
	.db #0x61	; 97	'a'
	.db #0x91	; 145
	.db #0x16	; 22
	.db #0x03	; 3
	.db #0xfa	; 250
	.db #0x0d	; 13
	.db #0x40	; 64
	.db #0x18	; 24
	.db #0x8e	; 142
	.db #0x66	; 102	'f'
	.db #0x88	; 136
	.db #0xfe	; 254
	.db #0x3c	; 60
	.db #0x0c	; 12
	.db #0xae	; 174
	.db #0x61	; 97	'a'
	.db #0x00	; 0
	.db #0x02	; 2
	.db #0x84	; 132
	.db #0x0c	; 12
	.db #0x56	; 86	'V'
	.db #0x82	; 130
	.db #0x18	; 24
	.db #0x80	; 128
	.db #0x81	; 129
	.db #0xf2	; 242
	.db #0x0a	; 10
	.db #0xb7	; 183
	.db #0x16	; 22
	.db #0x00	; 0
	.db #0x10	; 16
	.db #0x3d	; 61
	.db #0x09	; 9
	.db #0xfb	; 251
	.db #0x02	; 2
	.db #0x00	; 0
	.db #0xbe	; 190
	.db #0x26	; 38
	.db #0xf7	; 247
	.db #0x08	; 8
	.db #0x6b	; 107	'k'
	.db #0x61	; 97	'a'
	.db #0x91	; 145
	.db #0x00	; 0
	.db #0xa1	; 161
	.db #0x0c	; 12
	.db #0x10	; 16
	.db #0xa2	; 162
	.db #0x18	; 24
	.db #0x85	; 133
	.db #0x81	; 129
	.db #0xfa	; 250
	.db #0x06	; 6
	.db #0x16	; 22
	.db #0xdc	; 220
	.db #0x00	; 0
	.db #0x44	; 68	'D'
	.db #0xeb	; 235
	.db #0x05	; 5
	.db #0x18	; 24
	.db #0x97	; 151
	.db #0x00	; 0
	.db #0xaf	; 175
	.db #0x05	; 5
	.db #0x61	; 97	'a'
	.db #0x00	; 0
	.db #0x12	; 18
	.db #0x84	; 132
	.db #0x0b	; 11
	.db #0x06	; 6
	.db #0x24	; 36
	.db #0x17	; 23
	.db #0x71	; 113	'q'
	.db #0x89	; 137
	.db #0x67	; 103	'g'
	.db #0x76	; 118	'v'
	.db #0x22	; 34
	.db #0x68	; 104	'h'
	.db #0x86	; 134
	.db #0x50	; 80	'P'
	.db #0xa5	; 165
	.db #0x00	; 0
	.db #0x14	; 20
	.db #0xb9	; 185
	.db #0x88	; 136
	.db #0xfe	; 254
	.db #0x14	; 20
	.db #0xc9	; 201
	.db #0x00	; 0
	.db #0x0f	; 15
	.db #0x00	; 0
	.db #0x11	; 17
	.db #0x34	; 52	'4'
	.db #0x91	; 145
	.db #0x00	; 0
	.db #0xf1	; 241
	.db #0x00	; 0
	.db #0x07	; 7
	.db #0x09	; 9
	.db #0x00	; 0
	.db #0x1f	; 31
	.db #0x00	; 0
	.db #0x10	; 16
	.db #0x75	; 117	'u'
	.db #0x25	; 37
	.db #0x00	; 0
	.db #0x3c	; 60
	.db #0x00	; 0
	.db #0x40	; 64
	.db #0xd0	; 208
	.db #0x94	; 148
	.db #0x00	; 0
	.db #0xf1	; 241
	.db #0x00	; 0
	.db #0x03	; 3
	.db #0x12	; 18
	.db #0x00	; 0
	.db #0x57	; 87	'W'
	.db #0xc1	; 193
	.db #0x00	; 0
	.db #0x5c	; 92
	.db #0x09	; 9
	.db #0x00	; 0
	.db #0x5f	; 95
	.db #0x00	; 0
	.db #0x05	; 5
	.db #0x75	; 117	'u'
	.db #0x55	; 85	'U'
	.db #0x58	; 88	'X'
_vram1_len:
	.dw #0x0243
_vram2:
	.db #0xa1	; 161
	.db #0x00	; 0
	.db #0xba	; 186
	.db #0x09	; 9
	.db #0x92	; 146
	.db #0x23	; 35
	.db #0x30	; 48	'0'
	.db #0x00	; 0
	.db #0xf0	; 240
	.db #0x60	; 96
	.db #0x99	; 153
	.db #0x99	; 153
	.db #0x90	; 144
	.db #0x99	; 153
	.db #0x0e	; 14
	.db #0xea	; 234
	.db #0xa9	; 169
	.db #0x26	; 38
	.db #0xee	; 238
	.db #0xee	; 238
	.db #0xe0	; 224
	.db #0x09	; 9
	.db #0x92	; 146
	.db #0x08	; 8
	.db #0x82	; 130
	.db #0x2e	; 46
	.db #0x60	; 96
	.db #0x88	; 136
	.db #0x88	; 136
	.db #0x80	; 128
	.db #0x82	; 130
	.db #0x03	; 3
	.db #0x3a	; 58
	.db #0xa5	; 165
	.db #0x50	; 80	'P'
	.db #0x08	; 8
	.db #0x2e	; 46
	.db #0x04	; 4
	.db #0x44	; 68	'D'
	.db #0x44	; 68	'D'
	.db #0x40	; 64
	.db #0xfe	; 254
	.db #0x40	; 64
	.db #0xff	; 255
	.db #0x62	; 98	'b'
	.db #0x5e	; 94
	.db #0xe1	; 225
	.db #0xfe	; 254
	.db #0x88	; 136
	.db #0x0b	; 11
	.db #0xbb	; 187
	.db #0x3a	; 58
	.db #0x01	; 1
	.db #0x99	; 153
	.db #0x28	; 40
	.db #0x33	; 51	'3'
	.db #0x28	; 40
	.db #0x99	; 153
	.db #0xa0	; 160
	.db #0x99	; 153
	.db #0xa3	; 163
	.db #0xee	; 238
	.db #0x9e	; 158
	.db #0xf0	; 240
	.db #0xfe	; 254
	.db #0xfa	; 250
	.db #0x00	; 0
	.db #0x88	; 136
	.db #0x39	; 57	'9'
	.db #0xf0	; 240
	.db #0xef	; 239
	.db #0xfe	; 254
	.db #0x00	; 0
	.db #0xa2	; 162
	.db #0x33	; 51	'3'
	.db #0x82	; 130
	.db #0x55	; 85	'U'
	.db #0x8a	; 138
	.db #0x44	; 68	'D'
	.db #0x44	; 68	'D'
	.db #0x10	; 16
	.db #0x7b	; 123
	.db #0x65	; 101	'e'
	.db #0xe1	; 225
	.db #0x88	; 136
	.db #0xfd	; 253
	.db #0x1e	; 30
	.db #0xee	; 238
	.db #0xf6	; 246
	.db #0x04	; 4
	.db #0x86	; 134
	.db #0x00	; 0
	.db #0xe8	; 232
	.db #0xb1	; 177
	.db #0x01	; 1
	.db #0x09	; 9
	.db #0x28	; 40
	.db #0x30	; 48	'0'
	.db #0xa0	; 160
	.db #0x09	; 9
	.db #0xa2	; 162
	.db #0x90	; 144
	.db #0x9e	; 158
	.db #0x0e	; 14
	.db #0xf0	; 240
	.db #0x3e	; 62
	.db #0x00	; 0
	.db #0x8a	; 138
	.db #0x20	; 32
	.db #0x08	; 8
	.db #0x0a	; 10
	.db #0xe0	; 224
	.db #0x28	; 40
	.db #0x02	; 2
	.db #0x28	; 40
	.db #0xa0	; 160
	.db #0xa0	; 160
	.db #0x03	; 3
	.db #0xa2	; 162
	.db #0x50	; 80	'P'
	.db #0x8c	; 140
	.db #0x0a	; 10
	.db #0x90	; 144
	.db #0xfe	; 254
	.db #0x7f	; 127
	.db #0x67	; 103	'g'
	.db #0x0d	; 13
	.db #0xf7	; 247
	.db #0xfe	; 254
	.db #0xf7	; 247
	.db #0xd8	; 216
	.db #0x6b	; 107	'k'
	.db #0x04	; 4
	.db #0x2e	; 46
	.db #0xb0	; 176
	.db #0xf8	; 248
	.db #0xb7	; 183
	.db #0xb1	; 177
	.db #0x13	; 19
	.db #0xe8	; 232
	.db #0x00	; 0
	.db #0x33	; 51	'3'
	.db #0xa0	; 160
	.db #0x22	; 34
	.db #0xa2	; 162
	.db #0xaa	; 170
	.db #0x82	; 130
	.db #0xee	; 238
	.db #0x8a	; 138
	.db #0x99	; 153
	.db #0xaa	; 170
	.db #0x62	; 98	'b'
	.db #0xe2	; 226
	.db #0x29	; 41
	.db #0x28	; 40
	.db #0x88	; 136
	.db #0x28	; 40
	.db #0xee	; 238
	.db #0x88	; 136
	.db #0x32	; 50	'2'
	.db #0x28	; 40
	.db #0x88	; 136
	.db #0x8a	; 138
	.db #0xae	; 174
	.db #0xa0	; 160
	.db #0x33	; 51	'3'
	.db #0xa2	; 162
	.db #0x55	; 85	'U'
	.db #0x26	; 38
	.db #0x9a	; 154
	.db #0xa4	; 164
	.db #0x81	; 129
	.db #0x22	; 34
	.db #0x5a	; 90	'Z'
	.db #0xe1	; 225
	.db #0xa3	; 163
	.db #0x11	; 17
	.db #0x73	; 115	's'
	.db #0xfc	; 252
	.db #0x9f	; 159
	.db #0xdc	; 220
	.db #0x05	; 5
	.db #0xf6	; 246
	.db #0xf6	; 246
	.db #0x01	; 1
	.db #0xe6	; 230
	.db #0x09	; 9
	.db #0x00	; 0
	.db #0x3e	; 62
	.db #0x30	; 48	'0'
	.db #0x0e	; 14
	.db #0x29	; 41
	.db #0x01	; 1
	.db #0x09	; 9
	.db #0x9a	; 154
	.db #0xa3	; 163
	.db #0x30	; 48	'0'
	.db #0x0e	; 14
	.db #0x23	; 35
	.db #0x90	; 144
	.db #0x08	; 8
	.db #0xee	; 238
	.db #0x29	; 41
	.db #0xed	; 237
	.db #0x22	; 34
	.db #0xf0	; 240
	.db #0xe6	; 230
	.db #0x00	; 0
	.db #0xdb	; 219
	.db #0xe0	; 224
	.db #0x13	; 19
	.db #0x22	; 34
	.db #0xbb	; 187
	.db #0xed	; 237
	.db #0xaa	; 170
	.db #0xf0	; 240
	.db #0x9b	; 155
	.db #0x00	; 0
	.db #0x50	; 80	'P'
	.db #0xb9	; 185
	.db #0x91	; 145
	.db #0xaa	; 170
	.db #0x03	; 3
	.db #0x81	; 129
	.db #0x42	; 66	'B'
	.db #0x23	; 35
	.db #0x30	; 48	'0'
	.db #0x1e	; 30
	.db #0x11	; 17
	.db #0xb8	; 184
	.db #0x1e	; 30
	.db #0x00	; 0
	.db #0x29	; 41
	.db #0xee	; 238
	.db #0x3a	; 58
	.db #0xf4	; 244
	.db #0x8b	; 139
	.db #0xb0	; 176
	.db #0x1b	; 27
	.db #0xff	; 255
	.db #0x2b	; 43
	.db #0x00	; 0
	.db #0xff	; 255
	.db #0xff	; 255
	.db #0x26	; 38
	.db #0x5b	; 91
	.db #0xf0	; 240
	.db #0xff	; 255
	.db #0x00	; 0
	.db #0xff	; 255
	.db #0xf7	; 247
	.db #0x26	; 38
	.db #0xdb	; 219
	.db #0xff	; 255
	.db #0xf0	; 240
	.db #0x00	; 0
	.db #0xf3	; 243
	.db #0xff	; 255
	.db #0xcd	; 205
	.db #0xff	; 255
	.db #0x7f	; 127
	.db #0xdb	; 219
	.db #0xf0	; 240
	.db #0xff	; 255
	.db #0x00	; 0
	.db #0xff	; 255
	.db #0xcd	; 205
	.db #0x37	; 55	'7'
	.db #0xff	; 255
	.db #0x03	; 3
	.db #0xc8	; 200
	.db #0xe7	; 231
	.db #0x04	; 4
	.db #0x47	; 71	'G'
	.db #0xd6	; 214
	.db #0x01	; 1
	.db #0xfe	; 254
	.db #0x77	; 119	'w'
	.db #0xee	; 238
	.db #0xd6	; 214
	.db #0xfc	; 252
	.db #0x6a	; 106	'j'
	.db #0xb0	; 176
	.db #0x87	; 135
	.db #0x00	; 0
	.db #0x87	; 135
	.db #0x00	; 0
	.db #0xde	; 222
	.db #0x25	; 37
	.db #0x03	; 3
	.db #0x00	; 0
	.db #0x5f	; 95
	.db #0x25	; 37
	.db #0x79	; 121	'y'
	.db #0xdd	; 221
	.db #0x00	; 0
	.db #0x73	; 115	's'
	.db #0xff	; 255
	.db #0x79	; 121	'y'
	.db #0xdd	; 221
	.db #0x00	; 0
	.db #0x77	; 119	'w'
	.db #0xa5	; 165
	.db #0x78	; 120	'x'
	.db #0x03	; 3
	.db #0x00	; 0
	.db #0x47	; 71	'G'
	.db #0xbe	; 190
	.db #0x14	; 20
	.db #0x05	; 5
	.db #0xfe	; 254
	.db #0x4c	; 76	'L'
	.db #0x61	; 97	'a'
	.db #0xfe	; 254
	.db #0xd6	; 214
	.db #0x32	; 50	'2'
	.db #0xe6	; 230
	.db #0xff	; 255
	.db #0xac	; 172
	.db #0xca	; 202
	.db #0xaa	; 170
	.db #0xf8	; 248
	.db #0x4a	; 74	'J'
	.db #0xfe	; 254
	.db #0x2c	; 44
	.db #0xca	; 202
	.db #0x36	; 54	'6'
	.db #0xff	; 255
	.db #0x63	; 99	'c'
	.db #0x2c	; 44
	.db #0xc2	; 194
	.db #0x22	; 34
	.db #0x99	; 153
	.db #0x01	; 1
	.db #0x88	; 136
	.db #0xac	; 172
	.db #0xc9	; 201
	.db #0xf7	; 247
	.db #0xc0	; 192
	.db #0xa2	; 162
	.db #0x00	; 0
	.db #0x3c	; 60
	.db #0xce	; 206
	.db #0x7d	; 125
	.db #0xc0	; 192
	.db #0xda	; 218
	.db #0x90	; 144
	.db #0x27	; 39
	.db #0x9c	; 156
	.db #0xc2	; 194
	.db #0x61	; 97	'a'
	.db #0x02	; 2
	.db #0x5f	; 95
	.db #0xfe	; 254
	.db #0x7f	; 127
	.db #0xec	; 236
	.db #0x36	; 54	'6'
	.db #0xff	; 255
	.db #0xfc	; 252
	.db #0x0b	; 11
	.db #0xb0	; 176
	.db #0x92	; 146
	.db #0x00	; 0
	.db #0x25	; 37
	.db #0xec	; 236
	.db #0xc3	; 195
	.db #0x29	; 41
	.db #0x2c	; 44
	.db #0x58	; 88	'X'
	.db #0x95	; 149
	.db #0xac	; 172
	.db #0xc2	; 194
	.db #0xa0	; 160
	.db #0xca	; 202
	.db #0x53	; 83	'S'
	.db #0x93	; 147
	.db #0x04	; 4
	.db #0x1d	; 29
	.db #0xfa	; 250
	.db #0xe9	; 233
	.db #0xff	; 255
	.db #0xbb	; 187
	.db #0x71	; 113	'q'
	.db #0xee	; 238
	.db #0x34	; 52	'4'
	.db #0x28	; 40
	.db #0x26	; 38
	.db #0xea	; 234
	.db #0x4a	; 74	'J'
	.db #0xaa	; 170
	.db #0xee	; 238
	.db #0x60	; 96
	.db #0xea	; 234
	.db #0x8e	; 142
	.db #0x8a	; 138
	.db #0xa3	; 163
	.db #0xf0	; 240
	.db #0x27	; 39
	.db #0x82	; 130
	.db #0x23	; 35
	.db #0xaa	; 170
	.db #0xba	; 186
	.db #0x36	; 54	'6'
	.db #0xea	; 234
	.db #0x38	; 56	'8'
	.db #0x32	; 50	'2'
	.db #0x29	; 41
	.db #0xf0	; 240
	.db #0x9d	; 157
	.db #0x3a	; 58
	.db #0xa9	; 169
	.db #0x92	; 146
	.db #0x6e	; 110	'n'
	.db #0xee	; 238
	.db #0xea	; 234
	.db #0xb4	; 180
	.db #0x9a	; 154
	.db #0xe2	; 226
	.db #0xf3	; 243
	.db #0xf0	; 240
	.db #0x3b	; 59
	.db #0x22	; 34
	.db #0xea	; 234
	.db #0xae	; 174
	.db #0x60	; 96
	.db #0x02	; 2
	.db #0x4f	; 79	'O'
	.db #0x21	; 33
	.db #0xd6	; 214
	.db #0xfe	; 254
	.db #0xea	; 234
	.db #0xe0	; 224
	.db #0x00	; 0
	.db #0x1b	; 27
	.db #0x22	; 34
	.db #0xb1	; 177
	.db #0x1b	; 27
	.db #0x42	; 66	'B'
	.db #0x09	; 9
	.db #0xea	; 234
	.db #0xa8	; 168
	.db #0x82	; 130
	.db #0x23	; 35
	.db #0x0b	; 11
	.db #0x22	; 34
	.db #0xb9	; 185
	.db #0x1c	; 28
	.db #0x00	; 0
	.db #0x6e	; 110	'n'
	.db #0xaa	; 170
	.db #0x1c	; 28
	.db #0xe5	; 229
	.db #0x00	; 0
	.db #0xdb	; 219
	.db #0xe4	; 228
	.db #0x2d	; 45
	.db #0xd4	; 212
	.db #0x70	; 112	'p'
	.db #0x04	; 4
	.db #0x1f	; 31
	.db #0xfe	; 254
	.db #0xd9	; 217
	.db #0x00	; 0
	.db #0x88	; 136
	.db #0x1b	; 27
	.db #0xb1	; 177
	.db #0xa4	; 164
	.db #0x0e	; 14
	.db #0xbb	; 187
	.db #0x80	; 128
	.db #0xf1	; 241
	.db #0xaa	; 170
	.db #0xe3	; 227
	.db #0x1a	; 26
	.db #0x30	; 48	'0'
	.db #0x08	; 8
	.db #0x9f	; 159
	.db #0x00	; 0
	.db #0xf1	; 241
	.db #0x7e	; 126
	.db #0xe7	; 231
	.db #0x1a	; 26
	.db #0x39	; 57	'9'
	.db #0x90	; 144
	.db #0x03	; 3
	.db #0x00	; 0
	.db #0xf7	; 247
	.db #0xf1	; 241
	.db #0xe7	; 231
	.db #0xe3	; 227
	.db #0x1a	; 26
	.db #0xe0	; 224
	.db #0x09	; 9
	.db #0x9f	; 159
	.db #0x00	; 0
	.db #0xf1	; 241
	.db #0x7c	; 124
	.db #0xe6	; 230
	.db #0xb8	; 184
	.db #0xff	; 255
	.db #0x30	; 48	'0'
	.db #0x00	; 0
	.db #0x42	; 66	'B'
	.db #0x84	; 132
	.db #0xee	; 238
	.db #0x6a	; 106	'j'
	.db #0x1b	; 27
	.db #0x8a	; 138
	.db #0x11	; 17
	.db #0x00	; 0
	.db #0x4f	; 79	'O'
	.db #0xdf	; 223
	.db #0x73	; 115	's'
	.db #0x03	; 3
	.db #0x1a	; 26
	.db #0xf9	; 249
	.db #0xf1	; 241
	.db #0x00	; 0
	.db #0xf5	; 245
	.db #0xf1	; 241
	.db #0xff	; 255
	.db #0xe6	; 230
	.db #0x19	; 25
	.db #0xf1	; 241
	.db #0x9f	; 159
	.db #0x00	; 0
	.db #0xf1	; 241
	.db #0x5f	; 95
	.db #0xe6	; 230
	.db #0xf9	; 249
	.db #0x19	; 25
	.db #0xf1	; 241
	.db #0x00	; 0
	.db #0xf5	; 245
	.db #0xf1	; 241
	.db #0xf7	; 247
	.db #0xe6	; 230
	.db #0x99	; 153
	.db #0x24	; 36
	.db #0x02	; 2
	.db #0x48	; 72	'H'
	.db #0x24	; 36
	.db #0xec	; 236
	.db #0xcc	; 204
	.db #0xcc	; 204
	.db #0xce	; 206
	.db #0xc5	; 197
	.db #0xd6	; 214
	.db #0xef	; 239
	.db #0xff	; 255
	.db #0x8e	; 142
	.db #0xb1	; 177
	.db #0xfa	; 250
	.db #0xea	; 234
	.db #0x00	; 0
	.db #0x0e	; 14
	.db #0x0b	; 11
	.db #0x80	; 128
	.db #0x42	; 66	'B'
	.db #0x41	; 65	'A'
	.db #0x83	; 131
	.db #0x0a	; 10
	.db #0x43	; 67	'C'
	.db #0x20	; 32
	.db #0xfa	; 250
	.db #0x00	; 0
	.db #0x30	; 48	'0'
	.db #0x29	; 41
	.db #0x03	; 3
	.db #0x88	; 136
	.db #0x33	; 51	'3'
	.db #0xa0	; 160
	.db #0xa0	; 160
	.db #0x03	; 3
	.db #0xa2	; 162
	.db #0x90	; 144
	.db #0x9e	; 158
	.db #0x09	; 9
	.db #0xf0	; 240
	.db #0x7c	; 124
	.db #0x01	; 1
	.db #0x58	; 88	'X'
	.db #0xe0	; 224
	.db #0xd7	; 215
	.db #0x6e	; 110	'n'
	.db #0x3d	; 61
	.db #0xfe	; 254
	.db #0x5f	; 95
	.db #0x02	; 2
	.db #0x7f	; 127
	.db #0x05	; 5
	.db #0xfe	; 254
	.db #0xd8	; 216
	.db #0xfe	; 254
	.db #0xa3	; 163
	.db #0x1e	; 30
	.db #0x12	; 18
	.db #0x04	; 4
	.db #0x37	; 55	'7'
	.db #0xff	; 255
	.db #0xa8	; 168
	.db #0x00	; 0
	.db #0x00	; 0
	.db #0x31	; 49	'1'
	.db #0x25	; 37
	.db #0x40	; 64
	.db #0xff	; 255
	.db #0x00	; 0
	.db #0xf0	; 240
	.db #0xff	; 255
	.db #0x00	; 0
	.db #0xf0	; 240
	.db #0xfc	; 252
	.db #0x00	; 0
	.db #0x19	; 25
	.db #0xc0	; 192
	.db #0x7f	; 127
	.db #0x00	; 0
	.db #0x06	; 6
	.db #0xc0	; 192
	.db #0x4f	; 79	'O'
	.db #0xfe	; 254
	.db #0x57	; 87	'W'
	.db #0x69	; 105	'i'
	.db #0x05	; 5
	.db #0xe1	; 225
	.db #0x7e	; 126
	.db #0x00	; 0
	.db #0xb8	; 184
	.db #0xce	; 206
	.db #0xe0	; 224
	.db #0xfb	; 251
	.db #0x01	; 1
	.db #0x04	; 4
	.db #0x4b	; 75	'K'
	.db #0x02	; 2
	.db #0xe8	; 232
	.db #0xfd	; 253
	.db #0x01	; 1
	.db #0x0e	; 14
	.db #0xb0	; 176
	.db #0x80	; 128
	.db #0x25	; 37
	.db #0x40	; 64
	.db #0xd0	; 208
	.db #0xd7	; 215
	.db #0x0d	; 13
	.db #0x54	; 84	'T'
	.db #0xc8	; 200
	.db #0xfe	; 254
	.db #0xe7	; 231
	.db #0xf0	; 240
	.db #0xb5	; 181
	.db #0x01	; 1
	.db #0x90	; 144
	.db #0x59	; 89	'Y'
	.db #0xc0	; 192
	.db #0x60	; 96
	.db #0x80	; 128
	.db #0x09	; 9
	.db #0x9a	; 154
	.db #0xae	; 174
	.db #0xe0	; 224
	.db #0xc2	; 194
	.db #0x04	; 4
	.db #0x41	; 65	'A'
	.db #0xf2	; 242
	.db #0x0b	; 11
	.db #0xfe	; 254
	.db #0x4d	; 77	'M'
	.db #0xf3	; 243
	.db #0x8e	; 142
	.db #0xff	; 255
	.db #0xa6	; 166
	.db #0xfe	; 254
	.db #0xb1	; 177
	.db #0x11	; 17
	.db #0x00	; 0
	.db #0xa1	; 161
	.db #0xdd	; 221
	.db #0x51	; 81	'Q'
	.db #0xbb	; 187
	.db #0x0e	; 14
	.db #0x02	; 2
	.db #0xdd	; 221
	.db #0xfb	; 251
	.db #0x02	; 2
	.db #0xd3	; 211
	.db #0xfa	; 250
	.db #0x31	; 49	'1'
	.db #0x6e	; 110	'n'
	.db #0xf8	; 248
	.db #0x05	; 5
	.db #0x8e	; 142
	.db #0x1b	; 27
	.db #0xfa	; 250
	.db #0xcc	; 204
	.db #0xbc	; 188
	.db #0xdd	; 221
	.db #0x68	; 104	'h'
	.db #0xfe	; 254
	.db #0xc6	; 198
	.db #0xe8	; 232
	.db #0x4e	; 78	'N'
	.db #0xd0	; 208
	.db #0x7c	; 124
	.db #0xb8	; 184
	.db #0x4b	; 75	'K'
	.db #0xe3	; 227
	.db #0x3a	; 58
	.db #0xb7	; 183
	.db #0xd1	; 209
	.db #0x1e	; 30
	.db #0x5f	; 95
	.db #0xe7	; 231
	.db #0xe0	; 224
	.db #0xff	; 255
	.db #0xb8	; 184
	.db #0xff	; 255
	.db #0xe4	; 228
	.db #0xe9	; 233
	.db #0x4e	; 78	'N'
	.db #0x02	; 2
	.db #0x9f	; 159
	.db #0x11	; 17
	.db #0x0f	; 15
	.db #0xdf	; 223
	.db #0xfe	; 254
	.db #0x00	; 0
	.db #0x75	; 117	'u'
	.db #0xf1	; 241
	.db #0x04	; 4
	.db #0xf4	; 244
	.db #0x00	; 0
	.db #0x37	; 55	'7'
	.db #0xc0	; 192
	.db #0x51	; 81	'Q'
	.db #0x93	; 147
	.db #0xb4	; 180
	.db #0xd5	; 213
	.db #0xe8	; 232
	.db #0xe8	; 232
	.db #0xd1	; 209
	.db #0xe1	; 225
	.db #0x53	; 83	'S'
	.db #0xbd	; 189
	.db #0x1d	; 29
	.db #0x3e	; 62
	.db #0xd0	; 208
	.db #0x7f	; 127
	.db #0xee	; 238
	.db #0x63	; 99	'c'
	.db #0x02	; 2
	.db #0x30	; 48	'0'
	.db #0xfe	; 254
	.db #0xec	; 236
	.db #0x00	; 0
	.db #0x9e	; 158
	.db #0x02	; 2
	.db #0x00	; 0
	.db #0xb8	; 184
	.db #0x0b	; 11
	.db #0xb8	; 184
	.db #0xfe	; 254
	.db #0xf3	; 243
	.db #0xed	; 237
	.db #0xe8	; 232
	.db #0x41	; 65	'A'
	.db #0x76	; 118	'v'
	.db #0xa8	; 168
	.db #0xe1	; 225
	.db #0x00	; 0
	.db #0x69	; 105	'i'
	.db #0xee	; 238
	.db #0xf4	; 244
	.db #0x07	; 7
	.db #0xff	; 255
	.db #0x00	; 0
	.db #0xff	; 255
	.db #0xf8	; 248
	.db #0xe8	; 232
	.db #0x93	; 147
	.db #0xb0	; 176
	.db #0xe4	; 228
	.db #0xe8	; 232
	.db #0x17	; 23
	.db #0x2e	; 46
	.db #0x4a	; 74	'J'
	.db #0x00	; 0
	.db #0x52	; 82	'R'
	.db #0xb1	; 177
	.db #0x11	; 17
	.db #0x7d	; 125
	.db #0xfa	; 250
	.db #0x12	; 18
	.db #0xee	; 238
	.db #0x1f	; 31
	.db #0xff	; 255
	.db #0x90	; 144
	.db #0xe8	; 232
	.db #0x1d	; 29
	.db #0x1d	; 29
	.db #0x04	; 4
	.db #0xfc	; 252
	.db #0x0e	; 14
	.db #0x31	; 49	'1'
	.db #0xfc	; 252
	.db #0xd2	; 210
	.db #0x06	; 6
	.db #0xcb	; 203
	.db #0x04	; 4
	.db #0xf7	; 247
	.db #0xf5	; 245
	.db #0xa6	; 166
	.db #0xf8	; 248
	.db #0xf0	; 240
	.db #0xe8	; 232
	.db #0x05	; 5
	.db #0xbd	; 189
	.db #0xb0	; 176
	.db #0xd0	; 208
	.db #0x2f	; 47
	.db #0xe1	; 225
	.db #0x03	; 3
	.db #0x90	; 144
	.db #0x00	; 0
	.db #0xbf	; 191
	.db #0x11	; 17
	.db #0x06	; 6
	.db #0x2b	; 43
	.db #0x03	; 3
	.db #0x11	; 17
	.db #0x95	; 149
	.db #0xfe	; 254
	.db #0x4d	; 77	'M'
	.db #0x78	; 120	'x'
	.db #0x03	; 3
	.db #0x00	; 0
	.db #0x4e	; 78	'N'
	.db #0xd9	; 217
	.db #0xce	; 206
	.db #0x1e	; 30
	.db #0x08	; 8
	.db #0xfc	; 252
	.db #0x11	; 17
	.db #0xff	; 255
	.db #0x00	; 0
	.db #0x00	; 0
	.db #0xf6	; 246
	.db #0x27	; 39
	.db #0x00	; 0
	.db #0x53	; 83	'S'
	.db #0xcc	; 204
	.db #0xfe	; 254
	.db #0x37	; 55	'7'
	.db #0xa6	; 166
	.db #0xf8	; 248
	.db #0xf0	; 240
	.db #0xe8	; 232
	.db #0x55	; 85	'U'
	.db #0xe1	; 225
	.db #0x00	; 0
	.db #0x4d	; 77	'M'
	.db #0x58	; 88	'X'
	.db #0x61	; 97	'a'
	.db #0x84	; 132
	.db #0xe1	; 225
	.db #0xee	; 238
	.db #0x1d	; 29
	.db #0x49	; 73	'I'
	.db #0xa0	; 160
	.db #0x43	; 67	'C'
	.db #0xc0	; 192
	.db #0x00	; 0
	.db #0xd3	; 211
	.db #0xd5	; 213
	.db #0xf1	; 241
	.db #0x08	; 8
	.db #0x3d	; 61
	.db #0x3c	; 60
	.db #0x1d	; 29
	.db #0x48	; 72	'H'
	.db #0x3d	; 61
	.db #0x4d	; 77	'M'
	.db #0x1f	; 31
	.db #0x90	; 144
	.db #0x47	; 71	'G'
	.db #0x60	; 96
	.db #0x5d	; 93
	.db #0x1d	; 29
	.db #0x30	; 48	'0'
	.db #0xd0	; 208
	.db #0x85	; 133
	.db #0xb8	; 184
	.db #0xa1	; 161
	.db #0xe1	; 225
	.db #0x68	; 104	'h'
	.db #0xee	; 238
	.db #0x13	; 19
	.db #0xc2	; 194
	.db #0xf7	; 247
	.db #0x00	; 0
	.db #0x17	; 23
	.db #0xe1	; 225
	.db #0x35	; 53	'5'
	.db #0x00	; 0
	.db #0xbf	; 191
	.db #0x0e	; 14
	.db #0xe0	; 224
	.db #0x7c	; 124
	.db #0xa6	; 166
	.db #0xce	; 206
	.db #0xea	; 234
	.db #0xd6	; 214
	.db #0xb7	; 183
	.db #0x3e	; 62
	.db #0x02	; 2
	.db #0x3f	; 63
	.db #0x15	; 21
	.db #0xeb	; 235
	.db #0x9f	; 159
	.db #0xd0	; 208
	.db #0xd6	; 214
	.db #0xbd	; 189
	.db #0xe1	; 225
	.db #0xb8	; 184
	.db #0xe7	; 231
	.db #0x9e	; 158
	.db #0x42	; 66	'B'
	.db #0xea	; 234
	.db #0x1f	; 31
	.db #0xe8	; 232
	.db #0x7f	; 127
	.db #0x74	; 116	't'
	.db #0xc7	; 199
	.db #0xb8	; 184
	.db #0x95	; 149
	.db #0x00	; 0
	.db #0xf2	; 242
	.db #0xc9	; 201
	.db #0x00	; 0
	.db #0x1c	; 28
	.db #0xb6	; 182
	.db #0xe6	; 230
	.db #0x8e	; 142
	.db #0x71	; 113	'q'
	.db #0x72	; 114	'r'
	.db #0x92	; 146
	.db #0xbe	; 190
	.db #0x3e	; 62
	.db #0xff	; 255
	.db #0xe8	; 232
	.db #0x7f	; 127
	.db #0xf1	; 241
	.db #0x00	; 0
	.db #0xfe	; 254
	.db #0xe8	; 232
	.db #0xd6	; 214
	.db #0x3d	; 61
	.db #0xb8	; 184
	.db #0xf3	; 243
	.db #0x48	; 72	'H'
	.db #0xdf	; 223
	.db #0xe8	; 232
	.db #0xeb	; 235
	.db #0xda	; 218
	.db #0xe8	; 232
	.db #0xe1	; 225
	.db #0xef	; 239
	.db #0xf8	; 248
	.db #0xe8	; 232
	.db #0x2c	; 44
	.db #0x11	; 17
	.db #0xcb	; 203
	.db #0xfe	; 254
	.db #0x0e	; 14
	.db #0x91	; 145
	.db #0x00	; 0
	.db #0xa1	; 161
	.db #0xe1	; 225
	.db #0x7f	; 127
	.db #0xae	; 174
	.db #0xbc	; 188
	.db #0x2e	; 46
	.db #0x90	; 144
	.db #0xde	; 222
	.db #0x19	; 25
	.db #0x00	; 0
	.db #0x17	; 23
	.db #0xf7	; 247
	.db #0xea	; 234
	.db #0xb1	; 177
	.db #0x9c	; 156
	.db #0x48	; 72	'H'
	.db #0xfb	; 251
	.db #0xea	; 234
	.db #0x12	; 18
	.db #0x83	; 131
	.db #0x00	; 0
	.db #0xdf	; 223
	.db #0x18	; 24
	.db #0x16	; 22
	.db #0xe1	; 225
	.db #0xe8	; 232
	.db #0xc1	; 193
	.db #0xef	; 239
	.db #0x10	; 16
	.db #0xe1	; 225
	.db #0x00	; 0
	.db #0x31	; 49	'1'
	.db #0x35	; 53	'5'
	.db #0x00	; 0
	.db #0xe2	; 226
	.db #0xff	; 255
	.db #0xbb	; 187
	.db #0x33	; 51	'3'
	.db #0x5c	; 92
	.db #0x9d	; 157
	.db #0x02	; 2
	.db #0x63	; 99	'c'
	.db #0x2c	; 44
	.db #0x27	; 39
	.db #0x02	; 2
	.db #0xf3	; 243
	.db #0xeb	; 235
	.db #0xe8	; 232
	.db #0xdf	; 223
	.db #0x00	; 0
	.db #0xe8	; 232
	.db #0xe7	; 231
	.db #0xd6	; 214
	.db #0xf6	; 246
	.db #0xc7	; 199
	.db #0xe8	; 232
	.db #0x97	; 151
	.db #0xee	; 238
	.db #0x7e	; 126
	.db #0x6c	; 108	'l'
	.db #0xe8	; 232
	.db #0x4f	; 79	'O'
	.db #0x6f	; 111	'o'
	.db #0xf6	; 246
	.db #0xfd	; 253
	.db #0xe8	; 232
	.db #0x9f	; 159
	.db #0xe1	; 225
	.db #0xfb	; 251
	.db #0xdf	; 223
	.db #0xeb	; 235
	.db #0xc2	; 194
	.db #0x03	; 3
	.db #0x00	; 0
	.db #0x4e	; 78	'N'
	.db #0x01	; 1
	.db #0x81	; 129
	.db #0xeb	; 235
	.db #0xd5	; 213
	.db #0x55	; 85	'U'
	.db #0x60	; 96
_vram2_len:
	.dw #0x0423
_vram3:
	.db #0x66	; 102	'f'
	.db #0x00	; 0
	.db #0x0e	; 14
	.db #0xee	; 238
	.db #0x68	; 104	'h'
	.db #0x33	; 51	'3'
	.db #0xe3	; 227
	.db #0x33	; 51	'3'
	.db #0xea	; 234
	.db #0x3e	; 62
	.db #0x00	; 0
	.db #0xe8	; 232
	.db #0x1e	; 30
	.db #0xee	; 238
	.db #0xec	; 236
	.db #0xe9	; 233
	.db #0x9e	; 158
	.db #0xee	; 238
	.db #0xd4	; 212
	.db #0xea	; 234
	.db #0xea	; 234
	.db #0x3e	; 62
	.db #0xfe	; 254
	.db #0xe8	; 232
	.db #0xd6	; 214
	.db #0x7f	; 127
	.db #0xc5	; 197
	.db #0xe8	; 232
	.db #0xe3	; 227
	.db #0xa8	; 168
	.db #0xb8	; 184
	.db #0xea	; 234
	.db #0xb8	; 184
	.db #0xff	; 255
	.db #0xfe	; 254
	.db #0xe8	; 232
	.db #0x6e	; 110	'n'
	.db #0x11	; 17
	.db #0xec	; 236
	.db #0xae	; 174
	.db #0xe1	; 225
	.db #0xd0	; 208
	.db #0x4e	; 78	'N'
	.db #0xe8	; 232
	.db #0x3c	; 60
	.db #0xee	; 238
	.db #0xbc	; 188
	.db #0xcc	; 204
	.db #0xfe	; 254
	.db #0xe6	; 230
	.db #0xa2	; 162
	.db #0x7c	; 124
	.db #0xbb	; 187
	.db #0xbb	; 187
	.db #0x11	; 17
	.db #0xfe	; 254
	.db #0xf2	; 242
	.db #0x00	; 0
	.db #0x93	; 147
	.db #0x33	; 51	'3'
	.db #0xe5	; 229
	.db #0x83	; 131
	.db #0x00	; 0
	.db #0xa6	; 166
	.db #0xe3	; 227
	.db #0x90	; 144
	.db #0xee	; 238
	.db #0xa1	; 161
	.db #0xe1	; 225
	.db #0xa1	; 161
	.db #0x33	; 51	'3'
	.db #0x7f	; 127
	.db #0xcf	; 207
	.db #0xd3	; 211
	.db #0xff	; 255
	.db #0x18	; 24
	.db #0x88	; 136
	.db #0xfa	; 250
	.db #0xd8	; 216
	.db #0xb8	; 184
	.db #0xe7	; 231
	.db #0x1e	; 30
	.db #0x00	; 0
	.db #0xf9	; 249
	.db #0xca	; 202
	.db #0x00	; 0
	.db #0x29	; 41
	.db #0xec	; 236
	.db #0x29	; 41
	.db #0xce	; 206
	.db #0xaa	; 170
	.db #0xee	; 238
	.db #0xeb	; 235
	.db #0x53	; 83	'S'
	.db #0xf7	; 247
	.db #0x9b	; 155
	.db #0x00	; 0
	.db #0xf8	; 248
	.db #0x3a	; 58
	.db #0x42	; 66	'B'
	.db #0xc9	; 201
	.db #0xe8	; 232
	.db #0xd8	; 216
	.db #0x02	; 2
	.db #0xfe	; 254
	.db #0x60	; 96
	.db #0xd6	; 214
	.db #0x3f	; 63
	.db #0x30	; 48	'0'
	.db #0xdb	; 219
	.db #0x00	; 0
	.db #0x11	; 17
	.db #0xa5	; 165
	.db #0xd1	; 209
	.db #0xee	; 238
	.db #0x7f	; 127
	.db #0xa3	; 163
	.db #0xa0	; 160
	.db #0xc9	; 201
	.db #0xb8	; 184
	.db #0xef	; 239
	.db #0x5a	; 90	'Z'
	.db #0x70	; 112	'p'
	.db #0x7c	; 124
	.db #0xdf	; 223
	.db #0x97	; 151
	.db #0xfe	; 254
	.db #0x8a	; 138
	.db #0x02	; 2
	.db #0xbb	; 187
	.db #0x5f	; 95
	.db #0xde	; 222
	.db #0xff	; 255
	.db #0x18	; 24
	.db #0xbd	; 189
	.db #0x93	; 147
	.db #0x00	; 0
	.db #0x73	; 115	's'
	.db #0x90	; 144
	.db #0xfc	; 252
	.db #0xe9	; 233
	.db #0x3a	; 58
	.db #0xf7	; 247
	.db #0x5c	; 92
	.db #0x30	; 48	'0'
	.db #0x1d	; 29
	.db #0xdc	; 220
	.db #0x00	; 0
	.db #0xca	; 202
	.db #0xd0	; 208
	.db #0x3e	; 62
	.db #0x4c	; 76	'L'
	.db #0xd6	; 214
	.db #0xa0	; 160
	.db #0xf9	; 249
	.db #0xe1	; 225
	.db #0x93	; 147
	.db #0xca	; 202
	.db #0xdf	; 223
	.db #0xd0	; 208
	.db #0xf3	; 243
	.db #0xc0	; 192
	.db #0xfc	; 252
	.db #0xdf	; 223
	.db #0x04	; 4
	.db #0xca	; 202
	.db #0x00	; 0
	.db #0xb1	; 177
	.db #0x40	; 64
	.db #0xdd	; 221
	.db #0xa4	; 164
	.db #0xdc	; 220
	.db #0xe8	; 232
	.db #0xfd	; 253
	.db #0xe5	; 229
	.db #0x6d	; 109	'm'
	.db #0x75	; 117	'u'
	.db #0x30	; 48	'0'
	.db #0xf7	; 247
	.db #0x00	; 0
	.db #0x4d	; 77	'M'
	.db #0xd0	; 208
	.db #0x74	; 116	't'
	.db #0xcf	; 207
	.db #0x74	; 116	't'
	.db #0x88	; 136
	.db #0x35	; 53	'5'
	.db #0xde	; 222
	.db #0x70	; 112	'p'
	.db #0x57	; 87	'W'
	.db #0x81	; 129
	.db #0xee	; 238
	.db #0xf3	; 243
	.db #0x04	; 4
	.db #0x7b	; 123
	.db #0x02	; 2
	.db #0x1b	; 27
	.db #0x24	; 36
	.db #0x00	; 0
	.db #0xd7	; 215
	.db #0x16	; 22
	.db #0x32	; 50	'2'
	.db #0x90	; 144
	.db #0x77	; 119	'w'
	.db #0xa6	; 166
	.db #0x37	; 55	'7'
	.db #0xe8	; 232
	.db #0x28	; 40
	.db #0x1e	; 30
	.db #0x1e	; 30
	.db #0xcc	; 204
	.db #0x7d	; 125
	.db #0x18	; 24
	.db #0xf9	; 249
	.db #0xcf	; 207
	.db #0x00	; 0
	.db #0x7f	; 127
	.db #0xd1	; 209
	.db #0x00	; 0
	.db #0x28	; 40
	.db #0x33	; 51	'3'
	.db #0x53	; 83	'S'
	.db #0xd2	; 210
	.db #0x04	; 4
	.db #0xea	; 234
	.db #0xb1	; 177
	.db #0x00	; 0
	.db #0xbb	; 187
	.db #0x07	; 7
	.db #0x5f	; 95
	.db #0xbe	; 190
	.db #0xeb	; 235
	.db #0x7f	; 127
	.db #0x8e	; 142
	.db #0xe0	; 224
	.db #0xfe	; 254
	.db #0xa8	; 168
	.db #0xed	; 237
	.db #0x4a	; 74	'J'
	.db #0x3d	; 61
	.db #0xe8	; 232
	.db #0x89	; 137
	.db #0xe1	; 225
	.db #0x1e	; 30
	.db #0x7f	; 127
	.db #0xff	; 255
	.db #0xb2	; 178
	.db #0xe7	; 231
	.db #0xe8	; 232
	.db #0xfe	; 254
	.db #0x36	; 54	'6'
	.db #0xeb	; 235
	.db #0xe8	; 232
	.db #0x38	; 56	'8'
	.db #0x36	; 54	'6'
	.db #0xf8	; 248
	.db #0xb7	; 183
	.db #0xe8	; 232
	.db #0xf7	; 247
	.db #0x00	; 0
	.db #0xfd	; 253
	.db #0xe8	; 232
	.db #0x00	; 0
	.db #0xf6	; 246
	.db #0xe9	; 233
	.db #0x56	; 86	'V'
	.db #0x3d	; 61
	.db #0x04	; 4
	.db #0x20	; 32
	.db #0xc3	; 195
	.db #0x1b	; 27
	.db #0xb1	; 177
	.db #0x1b	; 27
	.db #0xb0	; 176
	.db #0xe0	; 224
	.db #0x73	; 115	's'
	.db #0xc0	; 192
	.db #0x7d	; 125
	.db #0x30	; 48	'0'
	.db #0xf1	; 241
	.db #0x00	; 0
	.db #0xf8	; 248
	.db #0xf9	; 249
	.db #0xd0	; 208
	.db #0x4e	; 78	'N'
	.db #0xfe	; 254
	.db #0x2e	; 46
	.db #0x11	; 17
	.db #0x00	; 0
	.db #0x1f	; 31
	.db #0xe7	; 231
	.db #0xc5	; 197
	.db #0x00	; 0
	.db #0xfb	; 251
	.db #0xff	; 255
	.db #0x1f	; 31
	.db #0xbe	; 190
	.db #0x1d	; 29
	.db #0x14	; 20
	.db #0xfb	; 251
	.db #0xfe	; 254
	.db #0x1b	; 27
	.db #0x7b	; 123
	.db #0x02	; 2
	.db #0x00	; 0
	.db #0x86	; 134
	.db #0x00	; 0
	.db #0x97	; 151
	.db #0x0e	; 14
	.db #0xcc	; 204
	.db #0xed	; 237
	.db #0x2e	; 46
	.db #0xe4	; 228
	.db #0xe8	; 232
	.db #0xd6	; 214
	.db #0x4a	; 74	'J'
	.db #0x78	; 120	'x'
	.db #0xb8	; 184
	.db #0xa4	; 164
	.db #0xe1	; 225
	.db #0x28	; 40
	.db #0x1e	; 30
	.db #0x0c	; 12
	.db #0x63	; 99	'c'
	.db #0x00	; 0
	.db #0xcf	; 207
	.db #0xe8	; 232
	.db #0x00	; 0
	.db #0x3d	; 61
	.db #0xb8	; 184
	.db #0xff	; 255
	.db #0xe6	; 230
	.db #0x02	; 2
	.db #0xaf	; 175
	.db #0x0b	; 11
	.db #0xfe	; 254
	.db #0x1e	; 30
	.db #0x01	; 1
	.db #0xe3	; 227
	.db #0xb1	; 177
	.db #0xfb	; 251
	.db #0xb0	; 176
	.db #0x00	; 0
	.db #0x87	; 135
	.db #0xfe	; 254
	.db #0x9b	; 155
	.db #0x48	; 72	'H'
	.db #0xe0	; 224
	.db #0xcf	; 207
	.db #0xe8	; 232
	.db #0xe7	; 231
	.db #0x93	; 147
	.db #0xe8	; 232
	.db #0xfd	; 253
	.db #0xd0	; 208
	.db #0xb8	; 184
	.db #0x0d	; 13
	.db #0xba	; 186
	.db #0x34	; 52	'4'
	.db #0xd1	; 209
	.db #0x1e	; 30
	.db #0x5d	; 93
	.db #0xf8	; 248
	.db #0x1a	; 26
	.db #0xb8	; 184
	.db #0x3f	; 63
	.db #0xe4	; 228
	.db #0xf8	; 248
	.db #0xe8	; 232
	.db #0x12	; 18
	.db #0xa0	; 160
	.db #0xb1	; 177
	.db #0xfd	; 253
	.db #0x10	; 16
	.db #0x77	; 119	'w'
	.db #0x02	; 2
	.db #0x3d	; 61
	.db #0xff	; 255
	.db #0xfe	; 254
	.db #0xcd	; 205
	.db #0xfe	; 254
	.db #0xe0	; 224
	.db #0xe8	; 232
	.db #0xa0	; 160
	.db #0xee	; 238
	.db #0x16	; 22
	.db #0xe4	; 228
	.db #0xe1	; 225
	.db #0xd0	; 208
	.db #0x76	; 118	'v'
	.db #0x1c	; 28
	.db #0xf5	; 245
	.db #0xd0	; 208
	.db #0xdd	; 221
	.db #0x05	; 5
	.db #0xff	; 255
	.db #0x29	; 41
	.db #0xf9	; 249
	.db #0x16	; 22
	.db #0x5f	; 95
	.db #0x10	; 16
	.db #0x33	; 51	'3'
	.db #0xfa	; 250
	.db #0x0e	; 14
	.db #0x03	; 3
	.db #0x00	; 0
	.db #0x3f	; 63
	.db #0xea	; 234
	.db #0xa1	; 161
	.db #0xa7	; 167
	.db #0x0b	; 11
	.db #0xfe	; 254
	.db #0xf3	; 243
	.db #0xed	; 237
	.db #0xe8	; 232
	.db #0x41	; 65	'A'
	.db #0x72	; 114	'r'
	.db #0x2c	; 44
	.db #0x3c	; 60
	.db #0x02	; 2
	.db #0xc3	; 195
	.db #0x17	; 23
	.db #0x22	; 34
	.db #0xe6	; 230
	.db #0x9e	; 158
	.db #0x00	; 0
	.db #0x00	; 0
	.db #0x4f	; 79	'O'
	.db #0xf3	; 243
	.db #0x8e	; 142
	.db #0x9c	; 156
	.db #0xb0	; 176
	.db #0xe4	; 228
	.db #0xe8	; 232
	.db #0x17	; 23
	.db #0xfd	; 253
	.db #0xee	; 238
	.db #0xf3	; 243
	.db #0xff	; 255
	.db #0x0a	; 10
	.db #0xfa	; 250
	.db #0xf2	; 242
	.db #0x1c	; 28
	.db #0xd8	; 216
	.db #0x73	; 115	's'
	.db #0x08	; 8
	.db #0x34	; 52	'4'
	.db #0x87	; 135
	.db #0xbe	; 190
	.db #0x91	; 145
	.db #0xe8	; 232
	.db #0x4e	; 78	'N'
	.db #0x2e	; 46
	.db #0xd7	; 215
	.db #0xfc	; 252
	.db #0xfc	; 252
	.db #0x0a	; 10
	.db #0xff	; 255
	.db #0xf4	; 244
	.db #0xe8	; 232
	.db #0xe4	; 228
	.db #0xdb	; 219
	.db #0x00	; 0
	.db #0xf7	; 247
	.db #0xa6	; 166
	.db #0x81	; 129
	.db #0xe8	; 232
	.db #0x5f	; 95
	.db #0x4f	; 79	'O'
	.db #0xd7	; 215
	.db #0xd0	; 208
	.db #0x67	; 103	'g'
	.db #0xee	; 238
	.db #0xb4	; 180
	.db #0x04	; 4
	.db #0xbd	; 189
	.db #0x02	; 2
	.db #0xfd	; 253
	.db #0xcf	; 207
	.db #0xe2	; 226
	.db #0xf5	; 245
	.db #0xca	; 202
	.db #0xfe	; 254
	.db #0x00	; 0
	.db #0x40	; 64
	.db #0x5d	; 93
	.db #0x8f	; 143
	.db #0xd2	; 210
	.db #0x19	; 25
	.db #0xdd	; 221
	.db #0xf2	; 242
	.db #0xf8	; 248
	.db #0xba	; 186
	.db #0x00	; 0
	.db #0x35	; 53	'5'
	.db #0x55	; 85	'U'
	.db #0x58	; 88	'X'
_vram3_len:
	.dw #0x01f1
_vram_pal:
	.db #0x00	; 0
	.db #0x00	; 0
	.db #0x00	; 0
	.db #0x00	; 0
	.db #0x07	; 7
	.db #0x00	; 0
	.db #0x00	; 0
	.db #0x05	; 5
	.db #0x00	; 0
	.db #0x07	; 7
	.db #0x07	; 7
	.db #0x07	; 7
	.db #0x17	; 23
	.db #0x01	; 1
	.db #0x17	; 23
	.db #0x03	; 3
	.db #0x37	; 55	'7'
	.db #0x04	; 4
	.db #0x66	; 102	'f'
	.db #0x06	; 6
	.db #0x70	; 112	'p'
	.db #0x00	; 0
	.db #0x70	; 112	'p'
	.db #0x01	; 1
	.db #0x70	; 112	'p'
	.db #0x06	; 6
	.db #0x70	; 112	'p'
	.db #0x07	; 7
	.db #0x77	; 119	'w'
	.db #0x07	; 7
	.db #0x00	; 0
	.db #0x00	; 0
_vram_pal_len:
	.dw #0x0020
_map:
	.db #0x04	; 4
	.db #0x04	; 4
	.db #0x04	; 4
	.db #0x04	; 4
	.db #0x04	; 4
	.db #0x04	; 4
	.db #0x04	; 4
	.db #0x04	; 4
	.db #0x04	; 4
	.db #0x04	; 4
	.db #0x04	; 4
	.db #0x04	; 4
	.db #0x04	; 4
	.db #0x04	; 4
	.db #0x04	; 4
	.db #0x04	; 4
	.db #0x00	; 0
	.db #0x00	; 0
	.db #0x00	; 0
	.db #0x00	; 0
	.db #0x00	; 0
	.db #0x00	; 0
	.db #0x00	; 0
	.db #0x00	; 0
	.db #0x00	; 0
	.db #0x00	; 0
	.db #0x00	; 0
	.db #0x00	; 0
	.db #0x00	; 0
	.db #0x00	; 0
	.db #0x00	; 0
	.db #0x00	; 0
	.db #0x00	; 0
	.db #0x00	; 0
	.db #0x00	; 0
	.db #0x00	; 0
	.db #0x00	; 0
	.db #0x00	; 0
	.db #0x00	; 0
	.db #0x00	; 0
	.db #0x00	; 0
	.db #0x00	; 0
	.db #0x00	; 0
	.db #0x00	; 0
	.db #0x00	; 0
	.db #0x00	; 0
	.db #0x00	; 0
	.db #0x00	; 0
	.db #0x00	; 0
	.db #0x00	; 0
	.db #0x00	; 0
	.db #0x00	; 0
	.db #0x00	; 0
	.db #0x00	; 0
	.db #0x00	; 0
	.db #0x00	; 0
	.db #0x00	; 0
	.db #0x00	; 0
	.db #0x00	; 0
	.db #0x00	; 0
	.db #0x00	; 0
	.db #0x00	; 0
	.db #0x00	; 0
	.db #0x00	; 0
	.db #0x03	; 3
	.db #0x03	; 3
	.db #0x03	; 3
	.db #0x03	; 3
	.db #0x03	; 3
	.db #0x03	; 3
	.db #0x03	; 3
	.db #0x03	; 3
	.db #0x03	; 3
	.db #0x03	; 3
	.db #0x03	; 3
	.db #0x03	; 3
	.db #0x03	; 3
	.db #0x03	; 3
	.db #0x03	; 3
	.db #0x03	; 3
	.db #0x02	; 2
	.db #0x02	; 2
	.db #0x02	; 2
	.db #0x02	; 2
	.db #0x02	; 2
	.db #0x02	; 2
	.db #0x02	; 2
	.db #0x02	; 2
	.db #0x02	; 2
	.db #0x02	; 2
	.db #0x02	; 2
	.db #0x02	; 2
	.db #0x02	; 2
	.db #0x02	; 2
	.db #0x02	; 2
	.db #0x02	; 2
	.db #0x01	; 1
	.db #0x01	; 1
	.db #0x01	; 1
	.db #0x01	; 1
	.db #0x01	; 1
	.db #0x01	; 1
	.db #0x01	; 1
	.db #0x01	; 1
	.db #0x01	; 1
	.db #0x01	; 1
	.db #0x01	; 1
	.db #0x01	; 1
	.db #0x01	; 1
	.db #0x01	; 1
	.db #0x01	; 1
	.db #0x01	; 1
	.db #0x02	; 2
	.db #0x02	; 2
	.db #0x02	; 2
	.db #0x02	; 2
	.db #0x02	; 2
	.db #0x02	; 2
	.db #0x02	; 2
	.db #0x02	; 2
	.db #0x02	; 2
	.db #0x02	; 2
	.db #0x02	; 2
	.db #0x02	; 2
	.db #0x02	; 2
	.db #0x02	; 2
	.db #0x02	; 2
	.db #0x02	; 2
	.db #0x00	; 0
	.db #0x00	; 0
	.db #0x00	; 0
	.db #0x00	; 0
	.db #0x00	; 0
	.db #0x00	; 0
	.db #0x00	; 0
	.db #0x00	; 0
	.db #0x00	; 0
	.db #0x00	; 0
	.db #0x00	; 0
	.db #0x00	; 0
	.db #0x00	; 0
	.db #0x00	; 0
	.db #0x00	; 0
	.db #0x00	; 0
	.db #0x02	; 2
	.db #0x02	; 2
	.db #0x02	; 2
	.db #0x02	; 2
	.db #0x02	; 2
	.db #0x02	; 2
	.db #0x02	; 2
	.db #0x02	; 2
	.db #0x02	; 2
	.db #0x02	; 2
	.db #0x02	; 2
	.db #0x02	; 2
	.db #0x02	; 2
	.db #0x02	; 2
	.db #0x02	; 2
	.db #0x02	; 2
	.db #0x01	; 1
	.db #0x01	; 1
	.db #0x01	; 1
	.db #0x01	; 1
	.db #0x01	; 1
	.db #0x01	; 1
	.db #0x01	; 1
	.db #0x01	; 1
	.db #0x01	; 1
	.db #0x01	; 1
	.db #0x01	; 1
	.db #0x01	; 1
	.db #0x01	; 1
	.db #0x01	; 1
	.db #0x01	; 1
	.db #0x01	; 1
	.db #0x02	; 2
	.db #0x02	; 2
	.db #0x02	; 2
	.db #0x02	; 2
	.db #0x02	; 2
	.db #0x02	; 2
	.db #0x02	; 2
	.db #0x02	; 2
	.db #0x02	; 2
	.db #0x02	; 2
	.db #0x02	; 2
	.db #0x02	; 2
	.db #0x02	; 2
	.db #0x02	; 2
	.db #0x02	; 2
	.db #0x02	; 2
	.db #0x03	; 3
	.db #0x03	; 3
	.db #0x03	; 3
	.db #0x03	; 3
	.db #0x03	; 3
	.db #0x03	; 3
	.db #0x03	; 3
	.db #0x03	; 3
	.db #0x03	; 3
	.db #0x03	; 3
	.db #0x03	; 3
	.db #0x03	; 3
	.db #0x03	; 3
	.db #0x03	; 3
	.db #0x03	; 3
	.db #0x03	; 3
	.db #0x00	; 0
	.db #0x00	; 0
	.db #0x00	; 0
	.db #0x00	; 0
	.db #0x00	; 0
	.db #0x00	; 0
	.db #0x00	; 0
	.db #0x00	; 0
	.db #0x00	; 0
	.db #0x00	; 0
	.db #0x00	; 0
	.db #0x00	; 0
	.db #0x00	; 0
	.db #0x00	; 0
	.db #0x00	; 0
	.db #0x00	; 0
	.db #0x00	; 0
	.db #0x00	; 0
	.db #0x00	; 0
	.db #0x00	; 0
	.db #0x00	; 0
	.db #0x00	; 0
	.db #0x00	; 0
	.db #0x00	; 0
	.db #0x00	; 0
	.db #0x00	; 0
	.db #0x00	; 0
	.db #0x00	; 0
	.db #0x00	; 0
	.db #0x00	; 0
	.db #0x00	; 0
	.db #0x00	; 0
	.db #0x00	; 0
	.db #0x00	; 0
	.db #0x00	; 0
	.db #0x00	; 0
	.db #0x00	; 0
	.db #0x00	; 0
	.db #0x00	; 0
	.db #0x00	; 0
	.db #0x00	; 0
	.db #0x00	; 0
	.db #0x00	; 0
	.db #0x00	; 0
	.db #0x00	; 0
	.db #0x00	; 0
	.db #0x00	; 0
	.db #0x00	; 0
	.area _APPLCODE
	.area _INITIALIZER
	.area _CABS (ABS)
